ARM GAS  /tmp/ccdUJEsE.s 			page 1


   1              		.cpu cortex-m0plus
   2              		.eabi_attribute 20, 1
   3              		.eabi_attribute 21, 1
   4              		.eabi_attribute 23, 3
   5              		.eabi_attribute 24, 1
   6              		.eabi_attribute 25, 1
   7              		.eabi_attribute 26, 1
   8              		.eabi_attribute 30, 1
   9              		.eabi_attribute 34, 0
  10              		.eabi_attribute 18, 4
  11              		.file	"Sys.c"
  12              		.text
  13              	.Ltext0:
  14              		.cfi_sections	.debug_frame
  15              		.section	.text.InitClocks,"ax",%progbits
  16              		.align	1
  17              		.global	InitClocks
  18              		.arch armv6s-m
  19              		.syntax unified
  20              		.code	16
  21              		.thumb_func
  22              		.fpu softvfp
  24              	InitClocks:
  25              	.LFB41:
  26              		.file 1 "Core/Src/Sys.c"
   1:Core/Src/Sys.c **** #include "Sys.h"
   2:Core/Src/Sys.c **** #include "stm32l0xx.h"
   3:Core/Src/Sys.c **** #include "system_stm32l0xx.h"
   4:Core/Src/Sys.c **** #include <stdint.h>
   5:Core/Src/Sys.c **** 
   6:Core/Src/Sys.c **** void InitClocks(void);
   7:Core/Src/Sys.c **** void InitSPI(void);
   8:Core/Src/Sys.c **** void InitGPIO(void);
   9:Core/Src/Sys.c **** 
  10:Core/Src/Sys.c **** void InitSys(void) {
  11:Core/Src/Sys.c ****   SystemInit();
  12:Core/Src/Sys.c ****   __disable_irq();
  13:Core/Src/Sys.c ****   InitClocks();
  14:Core/Src/Sys.c ****   InitGPIO();
  15:Core/Src/Sys.c ****   InitSPI();
  16:Core/Src/Sys.c ****   __enable_irq();
  17:Core/Src/Sys.c **** }
  18:Core/Src/Sys.c **** 
  19:Core/Src/Sys.c **** void InitClocks(void) {
  27              		.loc 1 19 23 view -0
  28              		.cfi_startproc
  29              		@ args = 0, pretend = 0, frame = 0
  30              		@ frame_needed = 0, uses_anonymous_args = 0
  31 0000 10B5     		push	{r4, lr}
  32              	.LCFI0:
  33              		.cfi_def_cfa_offset 8
  34              		.cfi_offset 4, -8
  35              		.cfi_offset 14, -4
  20:Core/Src/Sys.c ****   RCC->APB2ENR |= (uint32_t)1 << 22; //Enable DBG clock
  36              		.loc 1 20 3 view .LVU1
  37              		.loc 1 20 16 is_stmt 0 view .LVU2
  38 0002 244B     		ldr	r3, .L6
ARM GAS  /tmp/ccdUJEsE.s 			page 2


  39 0004 596B     		ldr	r1, [r3, #52]
  40 0006 8022     		movs	r2, #128
  41 0008 D203     		lsls	r2, r2, #15
  42 000a 0A43     		orrs	r2, r1
  43 000c 5A63     		str	r2, [r3, #52]
  21:Core/Src/Sys.c ****   FLASH->ACR |= (uint32_t)1; //Set 1 wait state on NVM
  44              		.loc 1 21 3 is_stmt 1 view .LVU3
  45              		.loc 1 21 14 is_stmt 0 view .LVU4
  46 000e 2249     		ldr	r1, .L6+4
  47 0010 0A68     		ldr	r2, [r1]
  48 0012 0120     		movs	r0, #1
  49 0014 0243     		orrs	r2, r0
  50 0016 0A60     		str	r2, [r1]
  22:Core/Src/Sys.c ****   RCC->CFGR |= (uint32_t)1 << 15; //Wakeup to HSI16
  51              		.loc 1 22 3 is_stmt 1 view .LVU5
  52              		.loc 1 22 13 is_stmt 0 view .LVU6
  53 0018 D968     		ldr	r1, [r3, #12]
  54 001a 8022     		movs	r2, #128
  55 001c 1202     		lsls	r2, r2, #8
  56 001e 0A43     		orrs	r2, r1
  57 0020 DA60     		str	r2, [r3, #12]
  23:Core/Src/Sys.c ****   RCC->CR &= ~((uint32_t)1 << 24); //Disable PLL
  58              		.loc 1 23 3 is_stmt 1 view .LVU7
  59              		.loc 1 23 11 is_stmt 0 view .LVU8
  60 0022 1A68     		ldr	r2, [r3]
  61 0024 1D49     		ldr	r1, .L6+8
  62 0026 0A40     		ands	r2, r1
  63 0028 1A60     		str	r2, [r3]
  24:Core/Src/Sys.c ****   while (RCC->CR & ((uint32_t)1 << 25)); //Wait till PLL is off
  64              		.loc 1 24 3 is_stmt 1 view .LVU9
  65              	.L2:
  66              		.loc 1 24 40 discriminator 1 view .LVU10
  67              		.loc 1 24 13 is_stmt 0 discriminator 1 view .LVU11
  68 002a 1A4B     		ldr	r3, .L6
  69 002c 1B68     		ldr	r3, [r3]
  70              		.loc 1 24 9 discriminator 1 view .LVU12
  71 002e 9B01     		lsls	r3, r3, #6
  72 0030 FBD4     		bmi	.L2
  25:Core/Src/Sys.c ****   RCC->CR |= (uint32_t)1; //Enable HSI16
  73              		.loc 1 25 3 is_stmt 1 view .LVU13
  74              		.loc 1 25 11 is_stmt 0 view .LVU14
  75 0032 184A     		ldr	r2, .L6
  76 0034 1368     		ldr	r3, [r2]
  77 0036 0121     		movs	r1, #1
  78 0038 0B43     		orrs	r3, r1
  79 003a 1360     		str	r3, [r2]
  26:Core/Src/Sys.c ****   while (!(RCC->CR & (uint32_t)1 << 2)); //Wait till HSI16 is ready
  80              		.loc 1 26 3 is_stmt 1 view .LVU15
  81              	.L3:
  82              		.loc 1 26 40 discriminator 1 view .LVU16
  83              		.loc 1 26 15 is_stmt 0 discriminator 1 view .LVU17
  84 003c 154B     		ldr	r3, .L6
  85 003e 1B68     		ldr	r3, [r3]
  86              		.loc 1 26 9 discriminator 1 view .LVU18
  87 0040 5B07     		lsls	r3, r3, #29
  88 0042 FBD5     		bpl	.L3
  27:Core/Src/Sys.c ****   //Set PLL for 24MHz output ((16/4)*6 = 24)
ARM GAS  /tmp/ccdUJEsE.s 			page 3


  28:Core/Src/Sys.c ****   RCC->CFGR |= (uint32_t)0b11 << 22; //Divide HSI16 by 4
  89              		.loc 1 28 3 is_stmt 1 view .LVU19
  90              		.loc 1 28 13 is_stmt 0 view .LVU20
  91 0044 134B     		ldr	r3, .L6
  92 0046 D968     		ldr	r1, [r3, #12]
  93 0048 C022     		movs	r2, #192
  94 004a 1204     		lsls	r2, r2, #16
  95 004c 0A43     		orrs	r2, r1
  96 004e DA60     		str	r2, [r3, #12]
  29:Core/Src/Sys.c ****   RCC->CFGR |= (uint32_t)0b0010 << 18; //Multiply by 6
  97              		.loc 1 29 3 is_stmt 1 view .LVU21
  98              		.loc 1 29 13 is_stmt 0 view .LVU22
  99 0050 D968     		ldr	r1, [r3, #12]
 100 0052 8022     		movs	r2, #128
 101 0054 1203     		lsls	r2, r2, #12
 102 0056 0A43     		orrs	r2, r1
 103 0058 DA60     		str	r2, [r3, #12]
  30:Core/Src/Sys.c ****   RCC->CR |= (uint32_t)1 << 24; //Enable PLL
 104              		.loc 1 30 3 is_stmt 1 view .LVU23
 105              		.loc 1 30 11 is_stmt 0 view .LVU24
 106 005a 1968     		ldr	r1, [r3]
 107 005c 8022     		movs	r2, #128
 108 005e 5204     		lsls	r2, r2, #17
 109 0060 0A43     		orrs	r2, r1
 110 0062 1A60     		str	r2, [r3]
  31:Core/Src/Sys.c ****   while (!(RCC->CR & ((uint32_t)1 << 25))); //Wait till PLL is stable
 111              		.loc 1 31 3 is_stmt 1 view .LVU25
 112              	.L4:
 113              		.loc 1 31 43 discriminator 1 view .LVU26
 114              		.loc 1 31 15 is_stmt 0 discriminator 1 view .LVU27
 115 0064 0B4B     		ldr	r3, .L6
 116 0066 1B68     		ldr	r3, [r3]
 117              		.loc 1 31 9 discriminator 1 view .LVU28
 118 0068 9B01     		lsls	r3, r3, #6
 119 006a FBD5     		bpl	.L4
  32:Core/Src/Sys.c ****   RCC->CFGR |= (uint32_t)0b11; //Set PLL as system clock
 120              		.loc 1 32 3 is_stmt 1 view .LVU29
 121              		.loc 1 32 13 is_stmt 0 view .LVU30
 122 006c 094A     		ldr	r2, .L6
 123 006e D368     		ldr	r3, [r2, #12]
 124 0070 0321     		movs	r1, #3
 125 0072 0B43     		orrs	r3, r1
 126 0074 D360     		str	r3, [r2, #12]
  33:Core/Src/Sys.c ****   while (!(RCC->CFGR & (uint32_t)0b11 << 2)); //Wait till PLL is set as system clock
 127              		.loc 1 33 3 is_stmt 1 view .LVU31
 128              	.L5:
 129              		.loc 1 33 45 discriminator 1 view .LVU32
 130              		.loc 1 33 15 is_stmt 0 discriminator 1 view .LVU33
 131 0076 074B     		ldr	r3, .L6
 132 0078 DB68     		ldr	r3, [r3, #12]
 133              		.loc 1 33 22 discriminator 1 view .LVU34
 134 007a 0C22     		movs	r2, #12
 135              		.loc 1 33 9 discriminator 1 view .LVU35
 136 007c 1A42     		tst	r2, r3
 137 007e FAD0     		beq	.L5
  34:Core/Src/Sys.c ****   SystemCoreClockUpdate();
 138              		.loc 1 34 3 is_stmt 1 view .LVU36
ARM GAS  /tmp/ccdUJEsE.s 			page 4


 139 0080 FFF7FEFF 		bl	SystemCoreClockUpdate
 140              	.LVL0:
  35:Core/Src/Sys.c ****   RCC->APB1ENR |= (uint32_t)1 << 28; //Enable PWR config clock
 141              		.loc 1 35 3 view .LVU37
 142              		.loc 1 35 16 is_stmt 0 view .LVU38
 143 0084 034A     		ldr	r2, .L6
 144 0086 916B     		ldr	r1, [r2, #56]
 145 0088 8023     		movs	r3, #128
 146 008a 5B05     		lsls	r3, r3, #21
 147 008c 0B43     		orrs	r3, r1
 148 008e 9363     		str	r3, [r2, #56]
  36:Core/Src/Sys.c **** }
 149              		.loc 1 36 1 view .LVU39
 150              		@ sp needed
 151 0090 10BD     		pop	{r4, pc}
 152              	.L7:
 153 0092 C046     		.align	2
 154              	.L6:
 155 0094 00100240 		.word	1073876992
 156 0098 00200240 		.word	1073881088
 157 009c FFFFFFFE 		.word	-16777217
 158              		.cfi_endproc
 159              	.LFE41:
 161              		.section	.text.InitSPI,"ax",%progbits
 162              		.align	1
 163              		.global	InitSPI
 164              		.syntax unified
 165              		.code	16
 166              		.thumb_func
 167              		.fpu softvfp
 169              	InitSPI:
 170              	.LFB42:
  37:Core/Src/Sys.c **** 
  38:Core/Src/Sys.c **** void InitSPI(void) {
 171              		.loc 1 38 20 is_stmt 1 view -0
 172              		.cfi_startproc
 173              		@ args = 0, pretend = 0, frame = 0
 174              		@ frame_needed = 0, uses_anonymous_args = 0
 175              		@ link register save eliminated.
  39:Core/Src/Sys.c ****   RCC->APB2RSTR ^= (uint32_t)1 << 12; //Reset SPI1
 176              		.loc 1 39 3 view .LVU41
 177              		.loc 1 39 17 is_stmt 0 view .LVU42
 178 0000 1A4B     		ldr	r3, .L9
 179 0002 596A     		ldr	r1, [r3, #36]
 180 0004 8022     		movs	r2, #128
 181 0006 5201     		lsls	r2, r2, #5
 182 0008 5140     		eors	r1, r2
 183 000a 5962     		str	r1, [r3, #36]
  40:Core/Src/Sys.c ****   RCC->APB2RSTR ^= (uint32_t)1 << 12;
 184              		.loc 1 40 3 is_stmt 1 view .LVU43
 185              		.loc 1 40 17 is_stmt 0 view .LVU44
 186 000c 596A     		ldr	r1, [r3, #36]
 187 000e 5140     		eors	r1, r2
 188 0010 5962     		str	r1, [r3, #36]
  41:Core/Src/Sys.c ****   RCC->APB2ENR |= (uint32_t)1 << 12; //Enable SPI Clock
 189              		.loc 1 41 3 is_stmt 1 view .LVU45
 190              		.loc 1 41 16 is_stmt 0 view .LVU46
ARM GAS  /tmp/ccdUJEsE.s 			page 5


 191 0012 596B     		ldr	r1, [r3, #52]
 192 0014 0A43     		orrs	r2, r1
 193 0016 5A63     		str	r2, [r3, #52]
  42:Core/Src/Sys.c ****   SPI1->CR2 |= (uint32_t)1 << 7;
 194              		.loc 1 42 3 is_stmt 1 view .LVU47
 195              		.loc 1 42 13 is_stmt 0 view .LVU48
 196 0018 154B     		ldr	r3, .L9+4
 197 001a 5968     		ldr	r1, [r3, #4]
 198 001c 8020     		movs	r0, #128
 199 001e 0143     		orrs	r1, r0
 200 0020 5960     		str	r1, [r3, #4]
  43:Core/Src/Sys.c ****   SPI1->CR1 |= (uint32_t)0b001 << 3; //Set Baud to 6MHz (Bus 24MHz/4)
 201              		.loc 1 43 3 is_stmt 1 view .LVU49
 202              		.loc 1 43 13 is_stmt 0 view .LVU50
 203 0022 1968     		ldr	r1, [r3]
 204 0024 0822     		movs	r2, #8
 205 0026 1143     		orrs	r1, r2
 206 0028 1960     		str	r1, [r3]
  44:Core/Src/Sys.c ****   SPI1->CR1 |= (uint32_t)1 << 2; //Master mode
 207              		.loc 1 44 3 is_stmt 1 view .LVU51
 208              		.loc 1 44 13 is_stmt 0 view .LVU52
 209 002a 1968     		ldr	r1, [r3]
 210 002c 043A     		subs	r2, r2, #4
 211 002e 1143     		orrs	r1, r2
 212 0030 1960     		str	r1, [r3]
  45:Core/Src/Sys.c ****   SPI1->CR1 |= (uint32_t)1 << 15; //Single Line
 213              		.loc 1 45 3 is_stmt 1 view .LVU53
 214              		.loc 1 45 13 is_stmt 0 view .LVU54
 215 0032 1A68     		ldr	r2, [r3]
 216 0034 8021     		movs	r1, #128
 217 0036 0902     		lsls	r1, r1, #8
 218 0038 1143     		orrs	r1, r2
 219 003a 1960     		str	r1, [r3]
  46:Core/Src/Sys.c ****   SPI1->CR1 |= (uint32_t)1 << 14; //TX Only
 220              		.loc 1 46 3 is_stmt 1 view .LVU55
 221              		.loc 1 46 13 is_stmt 0 view .LVU56
 222 003c 1A68     		ldr	r2, [r3]
 223 003e 8021     		movs	r1, #128
 224 0040 C901     		lsls	r1, r1, #7
 225 0042 1143     		orrs	r1, r2
 226 0044 1960     		str	r1, [r3]
  47:Core/Src/Sys.c ****   SPI1->CR2 |= (uint32_t)1 << 7; //Enable TX Empty IRQ
 227              		.loc 1 47 3 is_stmt 1 view .LVU57
 228              		.loc 1 47 13 is_stmt 0 view .LVU58
 229 0046 5A68     		ldr	r2, [r3, #4]
 230 0048 0243     		orrs	r2, r0
 231 004a 5A60     		str	r2, [r3, #4]
  48:Core/Src/Sys.c ****   SPI1->CR1 |= (uint32_t)1 << 6; //Enable SPI
 232              		.loc 1 48 3 is_stmt 1 view .LVU59
 233              		.loc 1 48 13 is_stmt 0 view .LVU60
 234 004c 1A68     		ldr	r2, [r3]
 235 004e 4021     		movs	r1, #64
 236 0050 0A43     		orrs	r2, r1
 237 0052 1A60     		str	r2, [r3]
  49:Core/Src/Sys.c ****   NVIC_EnableIRQ(SPI1_IRQn);
 238              		.loc 1 49 3 is_stmt 1 view .LVU61
 239              	.LVL1:
ARM GAS  /tmp/ccdUJEsE.s 			page 6


 240              	.LBB10:
 241              	.LBI10:
 242              		.file 2 "Drivers/CMSIS/Include/core_cm0plus.h"
   1:Drivers/CMSIS/Include/core_cm0plus.h **** /**************************************************************************//**
   2:Drivers/CMSIS/Include/core_cm0plus.h ****  * @file     core_cm0plus.h
   3:Drivers/CMSIS/Include/core_cm0plus.h ****  * @brief    CMSIS Cortex-M0+ Core Peripheral Access Layer Header File
   4:Drivers/CMSIS/Include/core_cm0plus.h ****  * @version  V5.0.6
   5:Drivers/CMSIS/Include/core_cm0plus.h ****  * @date     28. May 2018
   6:Drivers/CMSIS/Include/core_cm0plus.h ****  ******************************************************************************/
   7:Drivers/CMSIS/Include/core_cm0plus.h **** /*
   8:Drivers/CMSIS/Include/core_cm0plus.h ****  * Copyright (c) 2009-2018 Arm Limited. All rights reserved.
   9:Drivers/CMSIS/Include/core_cm0plus.h ****  *
  10:Drivers/CMSIS/Include/core_cm0plus.h ****  * SPDX-License-Identifier: Apache-2.0
  11:Drivers/CMSIS/Include/core_cm0plus.h ****  *
  12:Drivers/CMSIS/Include/core_cm0plus.h ****  * Licensed under the Apache License, Version 2.0 (the License); you may
  13:Drivers/CMSIS/Include/core_cm0plus.h ****  * not use this file except in compliance with the License.
  14:Drivers/CMSIS/Include/core_cm0plus.h ****  * You may obtain a copy of the License at
  15:Drivers/CMSIS/Include/core_cm0plus.h ****  *
  16:Drivers/CMSIS/Include/core_cm0plus.h ****  * www.apache.org/licenses/LICENSE-2.0
  17:Drivers/CMSIS/Include/core_cm0plus.h ****  *
  18:Drivers/CMSIS/Include/core_cm0plus.h ****  * Unless required by applicable law or agreed to in writing, software
  19:Drivers/CMSIS/Include/core_cm0plus.h ****  * distributed under the License is distributed on an AS IS BASIS, WITHOUT
  20:Drivers/CMSIS/Include/core_cm0plus.h ****  * WARRANTIES OR CONDITIONS OF ANY KIND, either express or implied.
  21:Drivers/CMSIS/Include/core_cm0plus.h ****  * See the License for the specific language governing permissions and
  22:Drivers/CMSIS/Include/core_cm0plus.h ****  * limitations under the License.
  23:Drivers/CMSIS/Include/core_cm0plus.h ****  */
  24:Drivers/CMSIS/Include/core_cm0plus.h **** 
  25:Drivers/CMSIS/Include/core_cm0plus.h **** #if   defined ( __ICCARM__ )
  26:Drivers/CMSIS/Include/core_cm0plus.h ****   #pragma system_include         /* treat file as system include file for MISRA check */
  27:Drivers/CMSIS/Include/core_cm0plus.h **** #elif defined (__clang__)
  28:Drivers/CMSIS/Include/core_cm0plus.h ****   #pragma clang system_header   /* treat file as system include file */
  29:Drivers/CMSIS/Include/core_cm0plus.h **** #endif
  30:Drivers/CMSIS/Include/core_cm0plus.h **** 
  31:Drivers/CMSIS/Include/core_cm0plus.h **** #ifndef __CORE_CM0PLUS_H_GENERIC
  32:Drivers/CMSIS/Include/core_cm0plus.h **** #define __CORE_CM0PLUS_H_GENERIC
  33:Drivers/CMSIS/Include/core_cm0plus.h **** 
  34:Drivers/CMSIS/Include/core_cm0plus.h **** #include <stdint.h>
  35:Drivers/CMSIS/Include/core_cm0plus.h **** 
  36:Drivers/CMSIS/Include/core_cm0plus.h **** #ifdef __cplusplus
  37:Drivers/CMSIS/Include/core_cm0plus.h ****  extern "C" {
  38:Drivers/CMSIS/Include/core_cm0plus.h **** #endif
  39:Drivers/CMSIS/Include/core_cm0plus.h **** 
  40:Drivers/CMSIS/Include/core_cm0plus.h **** /**
  41:Drivers/CMSIS/Include/core_cm0plus.h ****   \page CMSIS_MISRA_Exceptions  MISRA-C:2004 Compliance Exceptions
  42:Drivers/CMSIS/Include/core_cm0plus.h ****   CMSIS violates the following MISRA-C:2004 rules:
  43:Drivers/CMSIS/Include/core_cm0plus.h **** 
  44:Drivers/CMSIS/Include/core_cm0plus.h ****    \li Required Rule 8.5, object/function definition in header file.<br>
  45:Drivers/CMSIS/Include/core_cm0plus.h ****      Function definitions in header files are used to allow 'inlining'.
  46:Drivers/CMSIS/Include/core_cm0plus.h **** 
  47:Drivers/CMSIS/Include/core_cm0plus.h ****    \li Required Rule 18.4, declaration of union type or object of union type: '{...}'.<br>
  48:Drivers/CMSIS/Include/core_cm0plus.h ****      Unions are used for effective representation of core registers.
  49:Drivers/CMSIS/Include/core_cm0plus.h **** 
  50:Drivers/CMSIS/Include/core_cm0plus.h ****    \li Advisory Rule 19.7, Function-like macro defined.<br>
  51:Drivers/CMSIS/Include/core_cm0plus.h ****      Function-like macros are used to allow more efficient code.
  52:Drivers/CMSIS/Include/core_cm0plus.h ****  */
  53:Drivers/CMSIS/Include/core_cm0plus.h **** 
  54:Drivers/CMSIS/Include/core_cm0plus.h **** 
ARM GAS  /tmp/ccdUJEsE.s 			page 7


  55:Drivers/CMSIS/Include/core_cm0plus.h **** /*******************************************************************************
  56:Drivers/CMSIS/Include/core_cm0plus.h ****  *                 CMSIS definitions
  57:Drivers/CMSIS/Include/core_cm0plus.h ****  ******************************************************************************/
  58:Drivers/CMSIS/Include/core_cm0plus.h **** /**
  59:Drivers/CMSIS/Include/core_cm0plus.h ****   \ingroup Cortex-M0+
  60:Drivers/CMSIS/Include/core_cm0plus.h ****   @{
  61:Drivers/CMSIS/Include/core_cm0plus.h ****  */
  62:Drivers/CMSIS/Include/core_cm0plus.h **** 
  63:Drivers/CMSIS/Include/core_cm0plus.h **** #include "cmsis_version.h"
  64:Drivers/CMSIS/Include/core_cm0plus.h ****  
  65:Drivers/CMSIS/Include/core_cm0plus.h **** /*  CMSIS CM0+ definitions */
  66:Drivers/CMSIS/Include/core_cm0plus.h **** #define __CM0PLUS_CMSIS_VERSION_MAIN (__CM_CMSIS_VERSION_MAIN)                  /*!< \deprecated [3
  67:Drivers/CMSIS/Include/core_cm0plus.h **** #define __CM0PLUS_CMSIS_VERSION_SUB  (__CM_CMSIS_VERSION_SUB)                   /*!< \deprecated [1
  68:Drivers/CMSIS/Include/core_cm0plus.h **** #define __CM0PLUS_CMSIS_VERSION      ((__CM0PLUS_CMSIS_VERSION_MAIN << 16U) | \
  69:Drivers/CMSIS/Include/core_cm0plus.h ****                                        __CM0PLUS_CMSIS_VERSION_SUB           )  /*!< \deprecated CM
  70:Drivers/CMSIS/Include/core_cm0plus.h **** 
  71:Drivers/CMSIS/Include/core_cm0plus.h **** #define __CORTEX_M                   (0U)                                       /*!< Cortex-M Core 
  72:Drivers/CMSIS/Include/core_cm0plus.h **** 
  73:Drivers/CMSIS/Include/core_cm0plus.h **** /** __FPU_USED indicates whether an FPU is used or not.
  74:Drivers/CMSIS/Include/core_cm0plus.h ****     This core does not support an FPU at all
  75:Drivers/CMSIS/Include/core_cm0plus.h **** */
  76:Drivers/CMSIS/Include/core_cm0plus.h **** #define __FPU_USED       0U
  77:Drivers/CMSIS/Include/core_cm0plus.h **** 
  78:Drivers/CMSIS/Include/core_cm0plus.h **** #if defined ( __CC_ARM )
  79:Drivers/CMSIS/Include/core_cm0plus.h ****   #if defined __TARGET_FPU_VFP
  80:Drivers/CMSIS/Include/core_cm0plus.h ****     #error "Compiler generates FPU instructions for a device without an FPU (check __FPU_PRESENT)"
  81:Drivers/CMSIS/Include/core_cm0plus.h ****   #endif
  82:Drivers/CMSIS/Include/core_cm0plus.h **** 
  83:Drivers/CMSIS/Include/core_cm0plus.h **** #elif defined (__ARMCC_VERSION) && (__ARMCC_VERSION >= 6010050)
  84:Drivers/CMSIS/Include/core_cm0plus.h ****   #if defined __ARM_PCS_VFP
  85:Drivers/CMSIS/Include/core_cm0plus.h ****     #error "Compiler generates FPU instructions for a device without an FPU (check __FPU_PRESENT)"
  86:Drivers/CMSIS/Include/core_cm0plus.h ****   #endif
  87:Drivers/CMSIS/Include/core_cm0plus.h **** 
  88:Drivers/CMSIS/Include/core_cm0plus.h **** #elif defined ( __GNUC__ )
  89:Drivers/CMSIS/Include/core_cm0plus.h ****   #if defined (__VFP_FP__) && !defined(__SOFTFP__)
  90:Drivers/CMSIS/Include/core_cm0plus.h ****    //#error "Compiler generates FPU instructions for a device without an FPU (check __FPU_PRESENT)"
  91:Drivers/CMSIS/Include/core_cm0plus.h ****   #endif
  92:Drivers/CMSIS/Include/core_cm0plus.h **** 
  93:Drivers/CMSIS/Include/core_cm0plus.h **** #elif defined ( __ICCARM__ )
  94:Drivers/CMSIS/Include/core_cm0plus.h ****   #if defined __ARMVFP__
  95:Drivers/CMSIS/Include/core_cm0plus.h ****     #error "Compiler generates FPU instructions for a device without an FPU (check __FPU_PRESENT)"
  96:Drivers/CMSIS/Include/core_cm0plus.h ****   #endif
  97:Drivers/CMSIS/Include/core_cm0plus.h **** 
  98:Drivers/CMSIS/Include/core_cm0plus.h **** #elif defined ( __TI_ARM__ )
  99:Drivers/CMSIS/Include/core_cm0plus.h ****   #if defined __TI_VFP_SUPPORT__
 100:Drivers/CMSIS/Include/core_cm0plus.h ****     #error "Compiler generates FPU instructions for a device without an FPU (check __FPU_PRESENT)"
 101:Drivers/CMSIS/Include/core_cm0plus.h ****   #endif
 102:Drivers/CMSIS/Include/core_cm0plus.h **** 
 103:Drivers/CMSIS/Include/core_cm0plus.h **** #elif defined ( __TASKING__ )
 104:Drivers/CMSIS/Include/core_cm0plus.h ****   #if defined __FPU_VFP__
 105:Drivers/CMSIS/Include/core_cm0plus.h ****     #error "Compiler generates FPU instructions for a device without an FPU (check __FPU_PRESENT)"
 106:Drivers/CMSIS/Include/core_cm0plus.h ****   #endif
 107:Drivers/CMSIS/Include/core_cm0plus.h **** 
 108:Drivers/CMSIS/Include/core_cm0plus.h **** #elif defined ( __CSMC__ )
 109:Drivers/CMSIS/Include/core_cm0plus.h ****   #if ( __CSMC__ & 0x400U)
 110:Drivers/CMSIS/Include/core_cm0plus.h ****     #error "Compiler generates FPU instructions for a device without an FPU (check __FPU_PRESENT)"
 111:Drivers/CMSIS/Include/core_cm0plus.h ****   #endif
ARM GAS  /tmp/ccdUJEsE.s 			page 8


 112:Drivers/CMSIS/Include/core_cm0plus.h **** 
 113:Drivers/CMSIS/Include/core_cm0plus.h **** #endif
 114:Drivers/CMSIS/Include/core_cm0plus.h **** 
 115:Drivers/CMSIS/Include/core_cm0plus.h **** #include "cmsis_compiler.h"               /* CMSIS compiler specific defines */
 116:Drivers/CMSIS/Include/core_cm0plus.h **** 
 117:Drivers/CMSIS/Include/core_cm0plus.h **** 
 118:Drivers/CMSIS/Include/core_cm0plus.h **** #ifdef __cplusplus
 119:Drivers/CMSIS/Include/core_cm0plus.h **** }
 120:Drivers/CMSIS/Include/core_cm0plus.h **** #endif
 121:Drivers/CMSIS/Include/core_cm0plus.h **** 
 122:Drivers/CMSIS/Include/core_cm0plus.h **** #endif /* __CORE_CM0PLUS_H_GENERIC */
 123:Drivers/CMSIS/Include/core_cm0plus.h **** 
 124:Drivers/CMSIS/Include/core_cm0plus.h **** #ifndef __CMSIS_GENERIC
 125:Drivers/CMSIS/Include/core_cm0plus.h **** 
 126:Drivers/CMSIS/Include/core_cm0plus.h **** #ifndef __CORE_CM0PLUS_H_DEPENDANT
 127:Drivers/CMSIS/Include/core_cm0plus.h **** #define __CORE_CM0PLUS_H_DEPENDANT
 128:Drivers/CMSIS/Include/core_cm0plus.h **** 
 129:Drivers/CMSIS/Include/core_cm0plus.h **** #ifdef __cplusplus
 130:Drivers/CMSIS/Include/core_cm0plus.h ****  extern "C" {
 131:Drivers/CMSIS/Include/core_cm0plus.h **** #endif
 132:Drivers/CMSIS/Include/core_cm0plus.h **** 
 133:Drivers/CMSIS/Include/core_cm0plus.h **** /* check device defines and use defaults */
 134:Drivers/CMSIS/Include/core_cm0plus.h **** #if defined __CHECK_DEVICE_DEFINES
 135:Drivers/CMSIS/Include/core_cm0plus.h ****   #ifndef __CM0PLUS_REV
 136:Drivers/CMSIS/Include/core_cm0plus.h ****     #define __CM0PLUS_REV             0x0000U
 137:Drivers/CMSIS/Include/core_cm0plus.h ****     #warning "__CM0PLUS_REV not defined in device header file; using default!"
 138:Drivers/CMSIS/Include/core_cm0plus.h ****   #endif
 139:Drivers/CMSIS/Include/core_cm0plus.h **** 
 140:Drivers/CMSIS/Include/core_cm0plus.h ****   #ifndef __MPU_PRESENT
 141:Drivers/CMSIS/Include/core_cm0plus.h ****     #define __MPU_PRESENT             0U
 142:Drivers/CMSIS/Include/core_cm0plus.h ****     #warning "__MPU_PRESENT not defined in device header file; using default!"
 143:Drivers/CMSIS/Include/core_cm0plus.h ****   #endif
 144:Drivers/CMSIS/Include/core_cm0plus.h **** 
 145:Drivers/CMSIS/Include/core_cm0plus.h ****   #ifndef __VTOR_PRESENT
 146:Drivers/CMSIS/Include/core_cm0plus.h ****     #define __VTOR_PRESENT            0U
 147:Drivers/CMSIS/Include/core_cm0plus.h ****     #warning "__VTOR_PRESENT not defined in device header file; using default!"
 148:Drivers/CMSIS/Include/core_cm0plus.h ****   #endif
 149:Drivers/CMSIS/Include/core_cm0plus.h **** 
 150:Drivers/CMSIS/Include/core_cm0plus.h ****   #ifndef __NVIC_PRIO_BITS
 151:Drivers/CMSIS/Include/core_cm0plus.h ****     #define __NVIC_PRIO_BITS          2U
 152:Drivers/CMSIS/Include/core_cm0plus.h ****     #warning "__NVIC_PRIO_BITS not defined in device header file; using default!"
 153:Drivers/CMSIS/Include/core_cm0plus.h ****   #endif
 154:Drivers/CMSIS/Include/core_cm0plus.h **** 
 155:Drivers/CMSIS/Include/core_cm0plus.h ****   #ifndef __Vendor_SysTickConfig
 156:Drivers/CMSIS/Include/core_cm0plus.h ****     #define __Vendor_SysTickConfig    0U
 157:Drivers/CMSIS/Include/core_cm0plus.h ****     #warning "__Vendor_SysTickConfig not defined in device header file; using default!"
 158:Drivers/CMSIS/Include/core_cm0plus.h ****   #endif
 159:Drivers/CMSIS/Include/core_cm0plus.h **** #endif
 160:Drivers/CMSIS/Include/core_cm0plus.h **** 
 161:Drivers/CMSIS/Include/core_cm0plus.h **** /* IO definitions (access restrictions to peripheral registers) */
 162:Drivers/CMSIS/Include/core_cm0plus.h **** /**
 163:Drivers/CMSIS/Include/core_cm0plus.h ****     \defgroup CMSIS_glob_defs CMSIS Global Defines
 164:Drivers/CMSIS/Include/core_cm0plus.h **** 
 165:Drivers/CMSIS/Include/core_cm0plus.h ****     <strong>IO Type Qualifiers</strong> are used
 166:Drivers/CMSIS/Include/core_cm0plus.h ****     \li to specify the access to peripheral variables.
 167:Drivers/CMSIS/Include/core_cm0plus.h ****     \li for automatic generation of peripheral register debug information.
 168:Drivers/CMSIS/Include/core_cm0plus.h **** */
ARM GAS  /tmp/ccdUJEsE.s 			page 9


 169:Drivers/CMSIS/Include/core_cm0plus.h **** #ifdef __cplusplus
 170:Drivers/CMSIS/Include/core_cm0plus.h ****   #define   __I     volatile             /*!< Defines 'read only' permissions */
 171:Drivers/CMSIS/Include/core_cm0plus.h **** #else
 172:Drivers/CMSIS/Include/core_cm0plus.h ****   #define   __I     volatile const       /*!< Defines 'read only' permissions */
 173:Drivers/CMSIS/Include/core_cm0plus.h **** #endif
 174:Drivers/CMSIS/Include/core_cm0plus.h **** #define     __O     volatile             /*!< Defines 'write only' permissions */
 175:Drivers/CMSIS/Include/core_cm0plus.h **** #define     __IO    volatile             /*!< Defines 'read / write' permissions */
 176:Drivers/CMSIS/Include/core_cm0plus.h **** 
 177:Drivers/CMSIS/Include/core_cm0plus.h **** /* following defines should be used for structure members */
 178:Drivers/CMSIS/Include/core_cm0plus.h **** #define     __IM     volatile const      /*! Defines 'read only' structure member permissions */
 179:Drivers/CMSIS/Include/core_cm0plus.h **** #define     __OM     volatile            /*! Defines 'write only' structure member permissions */
 180:Drivers/CMSIS/Include/core_cm0plus.h **** #define     __IOM    volatile            /*! Defines 'read / write' structure member permissions */
 181:Drivers/CMSIS/Include/core_cm0plus.h **** 
 182:Drivers/CMSIS/Include/core_cm0plus.h **** /*@} end of group Cortex-M0+ */
 183:Drivers/CMSIS/Include/core_cm0plus.h **** 
 184:Drivers/CMSIS/Include/core_cm0plus.h **** 
 185:Drivers/CMSIS/Include/core_cm0plus.h **** 
 186:Drivers/CMSIS/Include/core_cm0plus.h **** /*******************************************************************************
 187:Drivers/CMSIS/Include/core_cm0plus.h ****  *                 Register Abstraction
 188:Drivers/CMSIS/Include/core_cm0plus.h ****   Core Register contain:
 189:Drivers/CMSIS/Include/core_cm0plus.h ****   - Core Register
 190:Drivers/CMSIS/Include/core_cm0plus.h ****   - Core NVIC Register
 191:Drivers/CMSIS/Include/core_cm0plus.h ****   - Core SCB Register
 192:Drivers/CMSIS/Include/core_cm0plus.h ****   - Core SysTick Register
 193:Drivers/CMSIS/Include/core_cm0plus.h ****   - Core MPU Register
 194:Drivers/CMSIS/Include/core_cm0plus.h ****  ******************************************************************************/
 195:Drivers/CMSIS/Include/core_cm0plus.h **** /**
 196:Drivers/CMSIS/Include/core_cm0plus.h ****   \defgroup CMSIS_core_register Defines and Type Definitions
 197:Drivers/CMSIS/Include/core_cm0plus.h ****   \brief Type definitions and defines for Cortex-M processor based devices.
 198:Drivers/CMSIS/Include/core_cm0plus.h **** */
 199:Drivers/CMSIS/Include/core_cm0plus.h **** 
 200:Drivers/CMSIS/Include/core_cm0plus.h **** /**
 201:Drivers/CMSIS/Include/core_cm0plus.h ****   \ingroup    CMSIS_core_register
 202:Drivers/CMSIS/Include/core_cm0plus.h ****   \defgroup   CMSIS_CORE  Status and Control Registers
 203:Drivers/CMSIS/Include/core_cm0plus.h ****   \brief      Core Register type definitions.
 204:Drivers/CMSIS/Include/core_cm0plus.h ****   @{
 205:Drivers/CMSIS/Include/core_cm0plus.h ****  */
 206:Drivers/CMSIS/Include/core_cm0plus.h **** 
 207:Drivers/CMSIS/Include/core_cm0plus.h **** /**
 208:Drivers/CMSIS/Include/core_cm0plus.h ****   \brief  Union type to access the Application Program Status Register (APSR).
 209:Drivers/CMSIS/Include/core_cm0plus.h ****  */
 210:Drivers/CMSIS/Include/core_cm0plus.h **** typedef union
 211:Drivers/CMSIS/Include/core_cm0plus.h **** {
 212:Drivers/CMSIS/Include/core_cm0plus.h ****   struct
 213:Drivers/CMSIS/Include/core_cm0plus.h ****   {
 214:Drivers/CMSIS/Include/core_cm0plus.h ****     uint32_t _reserved0:28;              /*!< bit:  0..27  Reserved */
 215:Drivers/CMSIS/Include/core_cm0plus.h ****     uint32_t V:1;                        /*!< bit:     28  Overflow condition code flag */
 216:Drivers/CMSIS/Include/core_cm0plus.h ****     uint32_t C:1;                        /*!< bit:     29  Carry condition code flag */
 217:Drivers/CMSIS/Include/core_cm0plus.h ****     uint32_t Z:1;                        /*!< bit:     30  Zero condition code flag */
 218:Drivers/CMSIS/Include/core_cm0plus.h ****     uint32_t N:1;                        /*!< bit:     31  Negative condition code flag */
 219:Drivers/CMSIS/Include/core_cm0plus.h ****   } b;                                   /*!< Structure used for bit  access */
 220:Drivers/CMSIS/Include/core_cm0plus.h ****   uint32_t w;                            /*!< Type      used for word access */
 221:Drivers/CMSIS/Include/core_cm0plus.h **** } APSR_Type;
 222:Drivers/CMSIS/Include/core_cm0plus.h **** 
 223:Drivers/CMSIS/Include/core_cm0plus.h **** /* APSR Register Definitions */
 224:Drivers/CMSIS/Include/core_cm0plus.h **** #define APSR_N_Pos                         31U                                            /*!< APSR
 225:Drivers/CMSIS/Include/core_cm0plus.h **** #define APSR_N_Msk                         (1UL << APSR_N_Pos)                            /*!< APSR
ARM GAS  /tmp/ccdUJEsE.s 			page 10


 226:Drivers/CMSIS/Include/core_cm0plus.h **** 
 227:Drivers/CMSIS/Include/core_cm0plus.h **** #define APSR_Z_Pos                         30U                                            /*!< APSR
 228:Drivers/CMSIS/Include/core_cm0plus.h **** #define APSR_Z_Msk                         (1UL << APSR_Z_Pos)                            /*!< APSR
 229:Drivers/CMSIS/Include/core_cm0plus.h **** 
 230:Drivers/CMSIS/Include/core_cm0plus.h **** #define APSR_C_Pos                         29U                                            /*!< APSR
 231:Drivers/CMSIS/Include/core_cm0plus.h **** #define APSR_C_Msk                         (1UL << APSR_C_Pos)                            /*!< APSR
 232:Drivers/CMSIS/Include/core_cm0plus.h **** 
 233:Drivers/CMSIS/Include/core_cm0plus.h **** #define APSR_V_Pos                         28U                                            /*!< APSR
 234:Drivers/CMSIS/Include/core_cm0plus.h **** #define APSR_V_Msk                         (1UL << APSR_V_Pos)                            /*!< APSR
 235:Drivers/CMSIS/Include/core_cm0plus.h **** 
 236:Drivers/CMSIS/Include/core_cm0plus.h **** 
 237:Drivers/CMSIS/Include/core_cm0plus.h **** /**
 238:Drivers/CMSIS/Include/core_cm0plus.h ****   \brief  Union type to access the Interrupt Program Status Register (IPSR).
 239:Drivers/CMSIS/Include/core_cm0plus.h ****  */
 240:Drivers/CMSIS/Include/core_cm0plus.h **** typedef union
 241:Drivers/CMSIS/Include/core_cm0plus.h **** {
 242:Drivers/CMSIS/Include/core_cm0plus.h ****   struct
 243:Drivers/CMSIS/Include/core_cm0plus.h ****   {
 244:Drivers/CMSIS/Include/core_cm0plus.h ****     uint32_t ISR:9;                      /*!< bit:  0.. 8  Exception number */
 245:Drivers/CMSIS/Include/core_cm0plus.h ****     uint32_t _reserved0:23;              /*!< bit:  9..31  Reserved */
 246:Drivers/CMSIS/Include/core_cm0plus.h ****   } b;                                   /*!< Structure used for bit  access */
 247:Drivers/CMSIS/Include/core_cm0plus.h ****   uint32_t w;                            /*!< Type      used for word access */
 248:Drivers/CMSIS/Include/core_cm0plus.h **** } IPSR_Type;
 249:Drivers/CMSIS/Include/core_cm0plus.h **** 
 250:Drivers/CMSIS/Include/core_cm0plus.h **** /* IPSR Register Definitions */
 251:Drivers/CMSIS/Include/core_cm0plus.h **** #define IPSR_ISR_Pos                        0U                                            /*!< IPSR
 252:Drivers/CMSIS/Include/core_cm0plus.h **** #define IPSR_ISR_Msk                       (0x1FFUL /*<< IPSR_ISR_Pos*/)                  /*!< IPSR
 253:Drivers/CMSIS/Include/core_cm0plus.h **** 
 254:Drivers/CMSIS/Include/core_cm0plus.h **** 
 255:Drivers/CMSIS/Include/core_cm0plus.h **** /**
 256:Drivers/CMSIS/Include/core_cm0plus.h ****   \brief  Union type to access the Special-Purpose Program Status Registers (xPSR).
 257:Drivers/CMSIS/Include/core_cm0plus.h ****  */
 258:Drivers/CMSIS/Include/core_cm0plus.h **** typedef union
 259:Drivers/CMSIS/Include/core_cm0plus.h **** {
 260:Drivers/CMSIS/Include/core_cm0plus.h ****   struct
 261:Drivers/CMSIS/Include/core_cm0plus.h ****   {
 262:Drivers/CMSIS/Include/core_cm0plus.h ****     uint32_t ISR:9;                      /*!< bit:  0.. 8  Exception number */
 263:Drivers/CMSIS/Include/core_cm0plus.h ****     uint32_t _reserved0:15;              /*!< bit:  9..23  Reserved */
 264:Drivers/CMSIS/Include/core_cm0plus.h ****     uint32_t T:1;                        /*!< bit:     24  Thumb bit        (read 0) */
 265:Drivers/CMSIS/Include/core_cm0plus.h ****     uint32_t _reserved1:3;               /*!< bit: 25..27  Reserved */
 266:Drivers/CMSIS/Include/core_cm0plus.h ****     uint32_t V:1;                        /*!< bit:     28  Overflow condition code flag */
 267:Drivers/CMSIS/Include/core_cm0plus.h ****     uint32_t C:1;                        /*!< bit:     29  Carry condition code flag */
 268:Drivers/CMSIS/Include/core_cm0plus.h ****     uint32_t Z:1;                        /*!< bit:     30  Zero condition code flag */
 269:Drivers/CMSIS/Include/core_cm0plus.h ****     uint32_t N:1;                        /*!< bit:     31  Negative condition code flag */
 270:Drivers/CMSIS/Include/core_cm0plus.h ****   } b;                                   /*!< Structure used for bit  access */
 271:Drivers/CMSIS/Include/core_cm0plus.h ****   uint32_t w;                            /*!< Type      used for word access */
 272:Drivers/CMSIS/Include/core_cm0plus.h **** } xPSR_Type;
 273:Drivers/CMSIS/Include/core_cm0plus.h **** 
 274:Drivers/CMSIS/Include/core_cm0plus.h **** /* xPSR Register Definitions */
 275:Drivers/CMSIS/Include/core_cm0plus.h **** #define xPSR_N_Pos                         31U                                            /*!< xPSR
 276:Drivers/CMSIS/Include/core_cm0plus.h **** #define xPSR_N_Msk                         (1UL << xPSR_N_Pos)                            /*!< xPSR
 277:Drivers/CMSIS/Include/core_cm0plus.h **** 
 278:Drivers/CMSIS/Include/core_cm0plus.h **** #define xPSR_Z_Pos                         30U                                            /*!< xPSR
 279:Drivers/CMSIS/Include/core_cm0plus.h **** #define xPSR_Z_Msk                         (1UL << xPSR_Z_Pos)                            /*!< xPSR
 280:Drivers/CMSIS/Include/core_cm0plus.h **** 
 281:Drivers/CMSIS/Include/core_cm0plus.h **** #define xPSR_C_Pos                         29U                                            /*!< xPSR
 282:Drivers/CMSIS/Include/core_cm0plus.h **** #define xPSR_C_Msk                         (1UL << xPSR_C_Pos)                            /*!< xPSR
ARM GAS  /tmp/ccdUJEsE.s 			page 11


 283:Drivers/CMSIS/Include/core_cm0plus.h **** 
 284:Drivers/CMSIS/Include/core_cm0plus.h **** #define xPSR_V_Pos                         28U                                            /*!< xPSR
 285:Drivers/CMSIS/Include/core_cm0plus.h **** #define xPSR_V_Msk                         (1UL << xPSR_V_Pos)                            /*!< xPSR
 286:Drivers/CMSIS/Include/core_cm0plus.h **** 
 287:Drivers/CMSIS/Include/core_cm0plus.h **** #define xPSR_T_Pos                         24U                                            /*!< xPSR
 288:Drivers/CMSIS/Include/core_cm0plus.h **** #define xPSR_T_Msk                         (1UL << xPSR_T_Pos)                            /*!< xPSR
 289:Drivers/CMSIS/Include/core_cm0plus.h **** 
 290:Drivers/CMSIS/Include/core_cm0plus.h **** #define xPSR_ISR_Pos                        0U                                            /*!< xPSR
 291:Drivers/CMSIS/Include/core_cm0plus.h **** #define xPSR_ISR_Msk                       (0x1FFUL /*<< xPSR_ISR_Pos*/)                  /*!< xPSR
 292:Drivers/CMSIS/Include/core_cm0plus.h **** 
 293:Drivers/CMSIS/Include/core_cm0plus.h **** 
 294:Drivers/CMSIS/Include/core_cm0plus.h **** /**
 295:Drivers/CMSIS/Include/core_cm0plus.h ****   \brief  Union type to access the Control Registers (CONTROL).
 296:Drivers/CMSIS/Include/core_cm0plus.h ****  */
 297:Drivers/CMSIS/Include/core_cm0plus.h **** typedef union
 298:Drivers/CMSIS/Include/core_cm0plus.h **** {
 299:Drivers/CMSIS/Include/core_cm0plus.h ****   struct
 300:Drivers/CMSIS/Include/core_cm0plus.h ****   {
 301:Drivers/CMSIS/Include/core_cm0plus.h ****     uint32_t nPRIV:1;                    /*!< bit:      0  Execution privilege in Thread mode */
 302:Drivers/CMSIS/Include/core_cm0plus.h ****     uint32_t SPSEL:1;                    /*!< bit:      1  Stack to be used */
 303:Drivers/CMSIS/Include/core_cm0plus.h ****     uint32_t _reserved1:30;              /*!< bit:  2..31  Reserved */
 304:Drivers/CMSIS/Include/core_cm0plus.h ****   } b;                                   /*!< Structure used for bit  access */
 305:Drivers/CMSIS/Include/core_cm0plus.h ****   uint32_t w;                            /*!< Type      used for word access */
 306:Drivers/CMSIS/Include/core_cm0plus.h **** } CONTROL_Type;
 307:Drivers/CMSIS/Include/core_cm0plus.h **** 
 308:Drivers/CMSIS/Include/core_cm0plus.h **** /* CONTROL Register Definitions */
 309:Drivers/CMSIS/Include/core_cm0plus.h **** #define CONTROL_SPSEL_Pos                   1U                                            /*!< CONT
 310:Drivers/CMSIS/Include/core_cm0plus.h **** #define CONTROL_SPSEL_Msk                  (1UL << CONTROL_SPSEL_Pos)                     /*!< CONT
 311:Drivers/CMSIS/Include/core_cm0plus.h **** 
 312:Drivers/CMSIS/Include/core_cm0plus.h **** #define CONTROL_nPRIV_Pos                   0U                                            /*!< CONT
 313:Drivers/CMSIS/Include/core_cm0plus.h **** #define CONTROL_nPRIV_Msk                  (1UL /*<< CONTROL_nPRIV_Pos*/)                 /*!< CONT
 314:Drivers/CMSIS/Include/core_cm0plus.h **** 
 315:Drivers/CMSIS/Include/core_cm0plus.h **** /*@} end of group CMSIS_CORE */
 316:Drivers/CMSIS/Include/core_cm0plus.h **** 
 317:Drivers/CMSIS/Include/core_cm0plus.h **** 
 318:Drivers/CMSIS/Include/core_cm0plus.h **** /**
 319:Drivers/CMSIS/Include/core_cm0plus.h ****   \ingroup    CMSIS_core_register
 320:Drivers/CMSIS/Include/core_cm0plus.h ****   \defgroup   CMSIS_NVIC  Nested Vectored Interrupt Controller (NVIC)
 321:Drivers/CMSIS/Include/core_cm0plus.h ****   \brief      Type definitions for the NVIC Registers
 322:Drivers/CMSIS/Include/core_cm0plus.h ****   @{
 323:Drivers/CMSIS/Include/core_cm0plus.h ****  */
 324:Drivers/CMSIS/Include/core_cm0plus.h **** 
 325:Drivers/CMSIS/Include/core_cm0plus.h **** /**
 326:Drivers/CMSIS/Include/core_cm0plus.h ****   \brief  Structure type to access the Nested Vectored Interrupt Controller (NVIC).
 327:Drivers/CMSIS/Include/core_cm0plus.h ****  */
 328:Drivers/CMSIS/Include/core_cm0plus.h **** typedef struct
 329:Drivers/CMSIS/Include/core_cm0plus.h **** {
 330:Drivers/CMSIS/Include/core_cm0plus.h ****   __IOM uint32_t ISER[1U];               /*!< Offset: 0x000 (R/W)  Interrupt Set Enable Register */
 331:Drivers/CMSIS/Include/core_cm0plus.h ****         uint32_t RESERVED0[31U];
 332:Drivers/CMSIS/Include/core_cm0plus.h ****   __IOM uint32_t ICER[1U];               /*!< Offset: 0x080 (R/W)  Interrupt Clear Enable Register 
 333:Drivers/CMSIS/Include/core_cm0plus.h ****         uint32_t RSERVED1[31U];
 334:Drivers/CMSIS/Include/core_cm0plus.h ****   __IOM uint32_t ISPR[1U];               /*!< Offset: 0x100 (R/W)  Interrupt Set Pending Register *
 335:Drivers/CMSIS/Include/core_cm0plus.h ****         uint32_t RESERVED2[31U];
 336:Drivers/CMSIS/Include/core_cm0plus.h ****   __IOM uint32_t ICPR[1U];               /*!< Offset: 0x180 (R/W)  Interrupt Clear Pending Register
 337:Drivers/CMSIS/Include/core_cm0plus.h ****         uint32_t RESERVED3[31U];
 338:Drivers/CMSIS/Include/core_cm0plus.h ****         uint32_t RESERVED4[64U];
 339:Drivers/CMSIS/Include/core_cm0plus.h ****   __IOM uint32_t IP[8U];                 /*!< Offset: 0x300 (R/W)  Interrupt Priority Register */
ARM GAS  /tmp/ccdUJEsE.s 			page 12


 340:Drivers/CMSIS/Include/core_cm0plus.h **** }  NVIC_Type;
 341:Drivers/CMSIS/Include/core_cm0plus.h **** 
 342:Drivers/CMSIS/Include/core_cm0plus.h **** /*@} end of group CMSIS_NVIC */
 343:Drivers/CMSIS/Include/core_cm0plus.h **** 
 344:Drivers/CMSIS/Include/core_cm0plus.h **** 
 345:Drivers/CMSIS/Include/core_cm0plus.h **** /**
 346:Drivers/CMSIS/Include/core_cm0plus.h ****   \ingroup  CMSIS_core_register
 347:Drivers/CMSIS/Include/core_cm0plus.h ****   \defgroup CMSIS_SCB     System Control Block (SCB)
 348:Drivers/CMSIS/Include/core_cm0plus.h ****   \brief    Type definitions for the System Control Block Registers
 349:Drivers/CMSIS/Include/core_cm0plus.h ****   @{
 350:Drivers/CMSIS/Include/core_cm0plus.h ****  */
 351:Drivers/CMSIS/Include/core_cm0plus.h **** 
 352:Drivers/CMSIS/Include/core_cm0plus.h **** /**
 353:Drivers/CMSIS/Include/core_cm0plus.h ****   \brief  Structure type to access the System Control Block (SCB).
 354:Drivers/CMSIS/Include/core_cm0plus.h ****  */
 355:Drivers/CMSIS/Include/core_cm0plus.h **** typedef struct
 356:Drivers/CMSIS/Include/core_cm0plus.h **** {
 357:Drivers/CMSIS/Include/core_cm0plus.h ****   __IM  uint32_t CPUID;                  /*!< Offset: 0x000 (R/ )  CPUID Base Register */
 358:Drivers/CMSIS/Include/core_cm0plus.h ****   __IOM uint32_t ICSR;                   /*!< Offset: 0x004 (R/W)  Interrupt Control and State Regi
 359:Drivers/CMSIS/Include/core_cm0plus.h **** #if defined (__VTOR_PRESENT) && (__VTOR_PRESENT == 1U)
 360:Drivers/CMSIS/Include/core_cm0plus.h ****   __IOM uint32_t VTOR;                   /*!< Offset: 0x008 (R/W)  Vector Table Offset Register */
 361:Drivers/CMSIS/Include/core_cm0plus.h **** #else
 362:Drivers/CMSIS/Include/core_cm0plus.h ****         uint32_t RESERVED0;
 363:Drivers/CMSIS/Include/core_cm0plus.h **** #endif
 364:Drivers/CMSIS/Include/core_cm0plus.h ****   __IOM uint32_t AIRCR;                  /*!< Offset: 0x00C (R/W)  Application Interrupt and Reset 
 365:Drivers/CMSIS/Include/core_cm0plus.h ****   __IOM uint32_t SCR;                    /*!< Offset: 0x010 (R/W)  System Control Register */
 366:Drivers/CMSIS/Include/core_cm0plus.h ****   __IOM uint32_t CCR;                    /*!< Offset: 0x014 (R/W)  Configuration Control Register *
 367:Drivers/CMSIS/Include/core_cm0plus.h ****         uint32_t RESERVED1;
 368:Drivers/CMSIS/Include/core_cm0plus.h ****   __IOM uint32_t SHP[2U];                /*!< Offset: 0x01C (R/W)  System Handlers Priority Registe
 369:Drivers/CMSIS/Include/core_cm0plus.h ****   __IOM uint32_t SHCSR;                  /*!< Offset: 0x024 (R/W)  System Handler Control and State
 370:Drivers/CMSIS/Include/core_cm0plus.h **** } SCB_Type;
 371:Drivers/CMSIS/Include/core_cm0plus.h **** 
 372:Drivers/CMSIS/Include/core_cm0plus.h **** /* SCB CPUID Register Definitions */
 373:Drivers/CMSIS/Include/core_cm0plus.h **** #define SCB_CPUID_IMPLEMENTER_Pos          24U                                            /*!< SCB 
 374:Drivers/CMSIS/Include/core_cm0plus.h **** #define SCB_CPUID_IMPLEMENTER_Msk          (0xFFUL << SCB_CPUID_IMPLEMENTER_Pos)          /*!< SCB 
 375:Drivers/CMSIS/Include/core_cm0plus.h **** 
 376:Drivers/CMSIS/Include/core_cm0plus.h **** #define SCB_CPUID_VARIANT_Pos              20U                                            /*!< SCB 
 377:Drivers/CMSIS/Include/core_cm0plus.h **** #define SCB_CPUID_VARIANT_Msk              (0xFUL << SCB_CPUID_VARIANT_Pos)               /*!< SCB 
 378:Drivers/CMSIS/Include/core_cm0plus.h **** 
 379:Drivers/CMSIS/Include/core_cm0plus.h **** #define SCB_CPUID_ARCHITECTURE_Pos         16U                                            /*!< SCB 
 380:Drivers/CMSIS/Include/core_cm0plus.h **** #define SCB_CPUID_ARCHITECTURE_Msk         (0xFUL << SCB_CPUID_ARCHITECTURE_Pos)          /*!< SCB 
 381:Drivers/CMSIS/Include/core_cm0plus.h **** 
 382:Drivers/CMSIS/Include/core_cm0plus.h **** #define SCB_CPUID_PARTNO_Pos                4U                                            /*!< SCB 
 383:Drivers/CMSIS/Include/core_cm0plus.h **** #define SCB_CPUID_PARTNO_Msk               (0xFFFUL << SCB_CPUID_PARTNO_Pos)              /*!< SCB 
 384:Drivers/CMSIS/Include/core_cm0plus.h **** 
 385:Drivers/CMSIS/Include/core_cm0plus.h **** #define SCB_CPUID_REVISION_Pos              0U                                            /*!< SCB 
 386:Drivers/CMSIS/Include/core_cm0plus.h **** #define SCB_CPUID_REVISION_Msk             (0xFUL /*<< SCB_CPUID_REVISION_Pos*/)          /*!< SCB 
 387:Drivers/CMSIS/Include/core_cm0plus.h **** 
 388:Drivers/CMSIS/Include/core_cm0plus.h **** /* SCB Interrupt Control State Register Definitions */
 389:Drivers/CMSIS/Include/core_cm0plus.h **** #define SCB_ICSR_NMIPENDSET_Pos            31U                                            /*!< SCB 
 390:Drivers/CMSIS/Include/core_cm0plus.h **** #define SCB_ICSR_NMIPENDSET_Msk            (1UL << SCB_ICSR_NMIPENDSET_Pos)               /*!< SCB 
 391:Drivers/CMSIS/Include/core_cm0plus.h **** 
 392:Drivers/CMSIS/Include/core_cm0plus.h **** #define SCB_ICSR_PENDSVSET_Pos             28U                                            /*!< SCB 
 393:Drivers/CMSIS/Include/core_cm0plus.h **** #define SCB_ICSR_PENDSVSET_Msk             (1UL << SCB_ICSR_PENDSVSET_Pos)                /*!< SCB 
 394:Drivers/CMSIS/Include/core_cm0plus.h **** 
 395:Drivers/CMSIS/Include/core_cm0plus.h **** #define SCB_ICSR_PENDSVCLR_Pos             27U                                            /*!< SCB 
 396:Drivers/CMSIS/Include/core_cm0plus.h **** #define SCB_ICSR_PENDSVCLR_Msk             (1UL << SCB_ICSR_PENDSVCLR_Pos)                /*!< SCB 
ARM GAS  /tmp/ccdUJEsE.s 			page 13


 397:Drivers/CMSIS/Include/core_cm0plus.h **** 
 398:Drivers/CMSIS/Include/core_cm0plus.h **** #define SCB_ICSR_PENDSTSET_Pos             26U                                            /*!< SCB 
 399:Drivers/CMSIS/Include/core_cm0plus.h **** #define SCB_ICSR_PENDSTSET_Msk             (1UL << SCB_ICSR_PENDSTSET_Pos)                /*!< SCB 
 400:Drivers/CMSIS/Include/core_cm0plus.h **** 
 401:Drivers/CMSIS/Include/core_cm0plus.h **** #define SCB_ICSR_PENDSTCLR_Pos             25U                                            /*!< SCB 
 402:Drivers/CMSIS/Include/core_cm0plus.h **** #define SCB_ICSR_PENDSTCLR_Msk             (1UL << SCB_ICSR_PENDSTCLR_Pos)                /*!< SCB 
 403:Drivers/CMSIS/Include/core_cm0plus.h **** 
 404:Drivers/CMSIS/Include/core_cm0plus.h **** #define SCB_ICSR_ISRPREEMPT_Pos            23U                                            /*!< SCB 
 405:Drivers/CMSIS/Include/core_cm0plus.h **** #define SCB_ICSR_ISRPREEMPT_Msk            (1UL << SCB_ICSR_ISRPREEMPT_Pos)               /*!< SCB 
 406:Drivers/CMSIS/Include/core_cm0plus.h **** 
 407:Drivers/CMSIS/Include/core_cm0plus.h **** #define SCB_ICSR_ISRPENDING_Pos            22U                                            /*!< SCB 
 408:Drivers/CMSIS/Include/core_cm0plus.h **** #define SCB_ICSR_ISRPENDING_Msk            (1UL << SCB_ICSR_ISRPENDING_Pos)               /*!< SCB 
 409:Drivers/CMSIS/Include/core_cm0plus.h **** 
 410:Drivers/CMSIS/Include/core_cm0plus.h **** #define SCB_ICSR_VECTPENDING_Pos           12U                                            /*!< SCB 
 411:Drivers/CMSIS/Include/core_cm0plus.h **** #define SCB_ICSR_VECTPENDING_Msk           (0x1FFUL << SCB_ICSR_VECTPENDING_Pos)          /*!< SCB 
 412:Drivers/CMSIS/Include/core_cm0plus.h **** 
 413:Drivers/CMSIS/Include/core_cm0plus.h **** #define SCB_ICSR_VECTACTIVE_Pos             0U                                            /*!< SCB 
 414:Drivers/CMSIS/Include/core_cm0plus.h **** #define SCB_ICSR_VECTACTIVE_Msk            (0x1FFUL /*<< SCB_ICSR_VECTACTIVE_Pos*/)       /*!< SCB 
 415:Drivers/CMSIS/Include/core_cm0plus.h **** 
 416:Drivers/CMSIS/Include/core_cm0plus.h **** #if defined (__VTOR_PRESENT) && (__VTOR_PRESENT == 1U)
 417:Drivers/CMSIS/Include/core_cm0plus.h **** /* SCB Interrupt Control State Register Definitions */
 418:Drivers/CMSIS/Include/core_cm0plus.h **** #define SCB_VTOR_TBLOFF_Pos                 8U                                            /*!< SCB 
 419:Drivers/CMSIS/Include/core_cm0plus.h **** #define SCB_VTOR_TBLOFF_Msk                (0xFFFFFFUL << SCB_VTOR_TBLOFF_Pos)            /*!< SCB 
 420:Drivers/CMSIS/Include/core_cm0plus.h **** #endif
 421:Drivers/CMSIS/Include/core_cm0plus.h **** 
 422:Drivers/CMSIS/Include/core_cm0plus.h **** /* SCB Application Interrupt and Reset Control Register Definitions */
 423:Drivers/CMSIS/Include/core_cm0plus.h **** #define SCB_AIRCR_VECTKEY_Pos              16U                                            /*!< SCB 
 424:Drivers/CMSIS/Include/core_cm0plus.h **** #define SCB_AIRCR_VECTKEY_Msk              (0xFFFFUL << SCB_AIRCR_VECTKEY_Pos)            /*!< SCB 
 425:Drivers/CMSIS/Include/core_cm0plus.h **** 
 426:Drivers/CMSIS/Include/core_cm0plus.h **** #define SCB_AIRCR_VECTKEYSTAT_Pos          16U                                            /*!< SCB 
 427:Drivers/CMSIS/Include/core_cm0plus.h **** #define SCB_AIRCR_VECTKEYSTAT_Msk          (0xFFFFUL << SCB_AIRCR_VECTKEYSTAT_Pos)        /*!< SCB 
 428:Drivers/CMSIS/Include/core_cm0plus.h **** 
 429:Drivers/CMSIS/Include/core_cm0plus.h **** #define SCB_AIRCR_ENDIANESS_Pos            15U                                            /*!< SCB 
 430:Drivers/CMSIS/Include/core_cm0plus.h **** #define SCB_AIRCR_ENDIANESS_Msk            (1UL << SCB_AIRCR_ENDIANESS_Pos)               /*!< SCB 
 431:Drivers/CMSIS/Include/core_cm0plus.h **** 
 432:Drivers/CMSIS/Include/core_cm0plus.h **** #define SCB_AIRCR_SYSRESETREQ_Pos           2U                                            /*!< SCB 
 433:Drivers/CMSIS/Include/core_cm0plus.h **** #define SCB_AIRCR_SYSRESETREQ_Msk          (1UL << SCB_AIRCR_SYSRESETREQ_Pos)             /*!< SCB 
 434:Drivers/CMSIS/Include/core_cm0plus.h **** 
 435:Drivers/CMSIS/Include/core_cm0plus.h **** #define SCB_AIRCR_VECTCLRACTIVE_Pos         1U                                            /*!< SCB 
 436:Drivers/CMSIS/Include/core_cm0plus.h **** #define SCB_AIRCR_VECTCLRACTIVE_Msk        (1UL << SCB_AIRCR_VECTCLRACTIVE_Pos)           /*!< SCB 
 437:Drivers/CMSIS/Include/core_cm0plus.h **** 
 438:Drivers/CMSIS/Include/core_cm0plus.h **** /* SCB System Control Register Definitions */
 439:Drivers/CMSIS/Include/core_cm0plus.h **** #define SCB_SCR_SEVONPEND_Pos               4U                                            /*!< SCB 
 440:Drivers/CMSIS/Include/core_cm0plus.h **** #define SCB_SCR_SEVONPEND_Msk              (1UL << SCB_SCR_SEVONPEND_Pos)                 /*!< SCB 
 441:Drivers/CMSIS/Include/core_cm0plus.h **** 
 442:Drivers/CMSIS/Include/core_cm0plus.h **** #define SCB_SCR_SLEEPDEEP_Pos               2U                                            /*!< SCB 
 443:Drivers/CMSIS/Include/core_cm0plus.h **** #define SCB_SCR_SLEEPDEEP_Msk              (1UL << SCB_SCR_SLEEPDEEP_Pos)                 /*!< SCB 
 444:Drivers/CMSIS/Include/core_cm0plus.h **** 
 445:Drivers/CMSIS/Include/core_cm0plus.h **** #define SCB_SCR_SLEEPONEXIT_Pos             1U                                            /*!< SCB 
 446:Drivers/CMSIS/Include/core_cm0plus.h **** #define SCB_SCR_SLEEPONEXIT_Msk            (1UL << SCB_SCR_SLEEPONEXIT_Pos)               /*!< SCB 
 447:Drivers/CMSIS/Include/core_cm0plus.h **** 
 448:Drivers/CMSIS/Include/core_cm0plus.h **** /* SCB Configuration Control Register Definitions */
 449:Drivers/CMSIS/Include/core_cm0plus.h **** #define SCB_CCR_STKALIGN_Pos                9U                                            /*!< SCB 
 450:Drivers/CMSIS/Include/core_cm0plus.h **** #define SCB_CCR_STKALIGN_Msk               (1UL << SCB_CCR_STKALIGN_Pos)                  /*!< SCB 
 451:Drivers/CMSIS/Include/core_cm0plus.h **** 
 452:Drivers/CMSIS/Include/core_cm0plus.h **** #define SCB_CCR_UNALIGN_TRP_Pos             3U                                            /*!< SCB 
 453:Drivers/CMSIS/Include/core_cm0plus.h **** #define SCB_CCR_UNALIGN_TRP_Msk            (1UL << SCB_CCR_UNALIGN_TRP_Pos)               /*!< SCB 
ARM GAS  /tmp/ccdUJEsE.s 			page 14


 454:Drivers/CMSIS/Include/core_cm0plus.h **** 
 455:Drivers/CMSIS/Include/core_cm0plus.h **** /* SCB System Handler Control and State Register Definitions */
 456:Drivers/CMSIS/Include/core_cm0plus.h **** #define SCB_SHCSR_SVCALLPENDED_Pos         15U                                            /*!< SCB 
 457:Drivers/CMSIS/Include/core_cm0plus.h **** #define SCB_SHCSR_SVCALLPENDED_Msk         (1UL << SCB_SHCSR_SVCALLPENDED_Pos)            /*!< SCB 
 458:Drivers/CMSIS/Include/core_cm0plus.h **** 
 459:Drivers/CMSIS/Include/core_cm0plus.h **** /*@} end of group CMSIS_SCB */
 460:Drivers/CMSIS/Include/core_cm0plus.h **** 
 461:Drivers/CMSIS/Include/core_cm0plus.h **** 
 462:Drivers/CMSIS/Include/core_cm0plus.h **** /**
 463:Drivers/CMSIS/Include/core_cm0plus.h ****   \ingroup  CMSIS_core_register
 464:Drivers/CMSIS/Include/core_cm0plus.h ****   \defgroup CMSIS_SysTick     System Tick Timer (SysTick)
 465:Drivers/CMSIS/Include/core_cm0plus.h ****   \brief    Type definitions for the System Timer Registers.
 466:Drivers/CMSIS/Include/core_cm0plus.h ****   @{
 467:Drivers/CMSIS/Include/core_cm0plus.h ****  */
 468:Drivers/CMSIS/Include/core_cm0plus.h **** 
 469:Drivers/CMSIS/Include/core_cm0plus.h **** /**
 470:Drivers/CMSIS/Include/core_cm0plus.h ****   \brief  Structure type to access the System Timer (SysTick).
 471:Drivers/CMSIS/Include/core_cm0plus.h ****  */
 472:Drivers/CMSIS/Include/core_cm0plus.h **** typedef struct
 473:Drivers/CMSIS/Include/core_cm0plus.h **** {
 474:Drivers/CMSIS/Include/core_cm0plus.h ****   __IOM uint32_t CTRL;                   /*!< Offset: 0x000 (R/W)  SysTick Control and Status Regis
 475:Drivers/CMSIS/Include/core_cm0plus.h ****   __IOM uint32_t LOAD;                   /*!< Offset: 0x004 (R/W)  SysTick Reload Value Register */
 476:Drivers/CMSIS/Include/core_cm0plus.h ****   __IOM uint32_t VAL;                    /*!< Offset: 0x008 (R/W)  SysTick Current Value Register *
 477:Drivers/CMSIS/Include/core_cm0plus.h ****   __IM  uint32_t CALIB;                  /*!< Offset: 0x00C (R/ )  SysTick Calibration Register */
 478:Drivers/CMSIS/Include/core_cm0plus.h **** } SysTick_Type;
 479:Drivers/CMSIS/Include/core_cm0plus.h **** 
 480:Drivers/CMSIS/Include/core_cm0plus.h **** /* SysTick Control / Status Register Definitions */
 481:Drivers/CMSIS/Include/core_cm0plus.h **** #define SysTick_CTRL_COUNTFLAG_Pos         16U                                            /*!< SysT
 482:Drivers/CMSIS/Include/core_cm0plus.h **** #define SysTick_CTRL_COUNTFLAG_Msk         (1UL << SysTick_CTRL_COUNTFLAG_Pos)            /*!< SysT
 483:Drivers/CMSIS/Include/core_cm0plus.h **** 
 484:Drivers/CMSIS/Include/core_cm0plus.h **** #define SysTick_CTRL_CLKSOURCE_Pos          2U                                            /*!< SysT
 485:Drivers/CMSIS/Include/core_cm0plus.h **** #define SysTick_CTRL_CLKSOURCE_Msk         (1UL << SysTick_CTRL_CLKSOURCE_Pos)            /*!< SysT
 486:Drivers/CMSIS/Include/core_cm0plus.h **** 
 487:Drivers/CMSIS/Include/core_cm0plus.h **** #define SysTick_CTRL_TICKINT_Pos            1U                                            /*!< SysT
 488:Drivers/CMSIS/Include/core_cm0plus.h **** #define SysTick_CTRL_TICKINT_Msk           (1UL << SysTick_CTRL_TICKINT_Pos)              /*!< SysT
 489:Drivers/CMSIS/Include/core_cm0plus.h **** 
 490:Drivers/CMSIS/Include/core_cm0plus.h **** #define SysTick_CTRL_ENABLE_Pos             0U                                            /*!< SysT
 491:Drivers/CMSIS/Include/core_cm0plus.h **** #define SysTick_CTRL_ENABLE_Msk            (1UL /*<< SysTick_CTRL_ENABLE_Pos*/)           /*!< SysT
 492:Drivers/CMSIS/Include/core_cm0plus.h **** 
 493:Drivers/CMSIS/Include/core_cm0plus.h **** /* SysTick Reload Register Definitions */
 494:Drivers/CMSIS/Include/core_cm0plus.h **** #define SysTick_LOAD_RELOAD_Pos             0U                                            /*!< SysT
 495:Drivers/CMSIS/Include/core_cm0plus.h **** #define SysTick_LOAD_RELOAD_Msk            (0xFFFFFFUL /*<< SysTick_LOAD_RELOAD_Pos*/)    /*!< SysT
 496:Drivers/CMSIS/Include/core_cm0plus.h **** 
 497:Drivers/CMSIS/Include/core_cm0plus.h **** /* SysTick Current Register Definitions */
 498:Drivers/CMSIS/Include/core_cm0plus.h **** #define SysTick_VAL_CURRENT_Pos             0U                                            /*!< SysT
 499:Drivers/CMSIS/Include/core_cm0plus.h **** #define SysTick_VAL_CURRENT_Msk            (0xFFFFFFUL /*<< SysTick_VAL_CURRENT_Pos*/)    /*!< SysT
 500:Drivers/CMSIS/Include/core_cm0plus.h **** 
 501:Drivers/CMSIS/Include/core_cm0plus.h **** /* SysTick Calibration Register Definitions */
 502:Drivers/CMSIS/Include/core_cm0plus.h **** #define SysTick_CALIB_NOREF_Pos            31U                                            /*!< SysT
 503:Drivers/CMSIS/Include/core_cm0plus.h **** #define SysTick_CALIB_NOREF_Msk            (1UL << SysTick_CALIB_NOREF_Pos)               /*!< SysT
 504:Drivers/CMSIS/Include/core_cm0plus.h **** 
 505:Drivers/CMSIS/Include/core_cm0plus.h **** #define SysTick_CALIB_SKEW_Pos             30U                                            /*!< SysT
 506:Drivers/CMSIS/Include/core_cm0plus.h **** #define SysTick_CALIB_SKEW_Msk             (1UL << SysTick_CALIB_SKEW_Pos)                /*!< SysT
 507:Drivers/CMSIS/Include/core_cm0plus.h **** 
 508:Drivers/CMSIS/Include/core_cm0plus.h **** #define SysTick_CALIB_TENMS_Pos             0U                                            /*!< SysT
 509:Drivers/CMSIS/Include/core_cm0plus.h **** #define SysTick_CALIB_TENMS_Msk            (0xFFFFFFUL /*<< SysTick_CALIB_TENMS_Pos*/)    /*!< SysT
 510:Drivers/CMSIS/Include/core_cm0plus.h **** 
ARM GAS  /tmp/ccdUJEsE.s 			page 15


 511:Drivers/CMSIS/Include/core_cm0plus.h **** /*@} end of group CMSIS_SysTick */
 512:Drivers/CMSIS/Include/core_cm0plus.h **** 
 513:Drivers/CMSIS/Include/core_cm0plus.h **** #if defined (__MPU_PRESENT) && (__MPU_PRESENT == 1U)
 514:Drivers/CMSIS/Include/core_cm0plus.h **** /**
 515:Drivers/CMSIS/Include/core_cm0plus.h ****   \ingroup  CMSIS_core_register
 516:Drivers/CMSIS/Include/core_cm0plus.h ****   \defgroup CMSIS_MPU     Memory Protection Unit (MPU)
 517:Drivers/CMSIS/Include/core_cm0plus.h ****   \brief    Type definitions for the Memory Protection Unit (MPU)
 518:Drivers/CMSIS/Include/core_cm0plus.h ****   @{
 519:Drivers/CMSIS/Include/core_cm0plus.h ****  */
 520:Drivers/CMSIS/Include/core_cm0plus.h **** 
 521:Drivers/CMSIS/Include/core_cm0plus.h **** /**
 522:Drivers/CMSIS/Include/core_cm0plus.h ****   \brief  Structure type to access the Memory Protection Unit (MPU).
 523:Drivers/CMSIS/Include/core_cm0plus.h ****  */
 524:Drivers/CMSIS/Include/core_cm0plus.h **** typedef struct
 525:Drivers/CMSIS/Include/core_cm0plus.h **** {
 526:Drivers/CMSIS/Include/core_cm0plus.h ****   __IM  uint32_t TYPE;                   /*!< Offset: 0x000 (R/ )  MPU Type Register */
 527:Drivers/CMSIS/Include/core_cm0plus.h ****   __IOM uint32_t CTRL;                   /*!< Offset: 0x004 (R/W)  MPU Control Register */
 528:Drivers/CMSIS/Include/core_cm0plus.h ****   __IOM uint32_t RNR;                    /*!< Offset: 0x008 (R/W)  MPU Region RNRber Register */
 529:Drivers/CMSIS/Include/core_cm0plus.h ****   __IOM uint32_t RBAR;                   /*!< Offset: 0x00C (R/W)  MPU Region Base Address Register
 530:Drivers/CMSIS/Include/core_cm0plus.h ****   __IOM uint32_t RASR;                   /*!< Offset: 0x010 (R/W)  MPU Region Attribute and Size Re
 531:Drivers/CMSIS/Include/core_cm0plus.h **** } MPU_Type;
 532:Drivers/CMSIS/Include/core_cm0plus.h **** 
 533:Drivers/CMSIS/Include/core_cm0plus.h **** #define MPU_TYPE_RALIASES                  1U
 534:Drivers/CMSIS/Include/core_cm0plus.h **** 
 535:Drivers/CMSIS/Include/core_cm0plus.h **** /* MPU Type Register Definitions */
 536:Drivers/CMSIS/Include/core_cm0plus.h **** #define MPU_TYPE_IREGION_Pos               16U                                            /*!< MPU 
 537:Drivers/CMSIS/Include/core_cm0plus.h **** #define MPU_TYPE_IREGION_Msk               (0xFFUL << MPU_TYPE_IREGION_Pos)               /*!< MPU 
 538:Drivers/CMSIS/Include/core_cm0plus.h **** 
 539:Drivers/CMSIS/Include/core_cm0plus.h **** #define MPU_TYPE_DREGION_Pos                8U                                            /*!< MPU 
 540:Drivers/CMSIS/Include/core_cm0plus.h **** #define MPU_TYPE_DREGION_Msk               (0xFFUL << MPU_TYPE_DREGION_Pos)               /*!< MPU 
 541:Drivers/CMSIS/Include/core_cm0plus.h **** 
 542:Drivers/CMSIS/Include/core_cm0plus.h **** #define MPU_TYPE_SEPARATE_Pos               0U                                            /*!< MPU 
 543:Drivers/CMSIS/Include/core_cm0plus.h **** #define MPU_TYPE_SEPARATE_Msk              (1UL /*<< MPU_TYPE_SEPARATE_Pos*/)             /*!< MPU 
 544:Drivers/CMSIS/Include/core_cm0plus.h **** 
 545:Drivers/CMSIS/Include/core_cm0plus.h **** /* MPU Control Register Definitions */
 546:Drivers/CMSIS/Include/core_cm0plus.h **** #define MPU_CTRL_PRIVDEFENA_Pos             2U                                            /*!< MPU 
 547:Drivers/CMSIS/Include/core_cm0plus.h **** #define MPU_CTRL_PRIVDEFENA_Msk            (1UL << MPU_CTRL_PRIVDEFENA_Pos)               /*!< MPU 
 548:Drivers/CMSIS/Include/core_cm0plus.h **** 
 549:Drivers/CMSIS/Include/core_cm0plus.h **** #define MPU_CTRL_HFNMIENA_Pos               1U                                            /*!< MPU 
 550:Drivers/CMSIS/Include/core_cm0plus.h **** #define MPU_CTRL_HFNMIENA_Msk              (1UL << MPU_CTRL_HFNMIENA_Pos)                 /*!< MPU 
 551:Drivers/CMSIS/Include/core_cm0plus.h **** 
 552:Drivers/CMSIS/Include/core_cm0plus.h **** #define MPU_CTRL_ENABLE_Pos                 0U                                            /*!< MPU 
 553:Drivers/CMSIS/Include/core_cm0plus.h **** #define MPU_CTRL_ENABLE_Msk                (1UL /*<< MPU_CTRL_ENABLE_Pos*/)               /*!< MPU 
 554:Drivers/CMSIS/Include/core_cm0plus.h **** 
 555:Drivers/CMSIS/Include/core_cm0plus.h **** /* MPU Region Number Register Definitions */
 556:Drivers/CMSIS/Include/core_cm0plus.h **** #define MPU_RNR_REGION_Pos                  0U                                            /*!< MPU 
 557:Drivers/CMSIS/Include/core_cm0plus.h **** #define MPU_RNR_REGION_Msk                 (0xFFUL /*<< MPU_RNR_REGION_Pos*/)             /*!< MPU 
 558:Drivers/CMSIS/Include/core_cm0plus.h **** 
 559:Drivers/CMSIS/Include/core_cm0plus.h **** /* MPU Region Base Address Register Definitions */
 560:Drivers/CMSIS/Include/core_cm0plus.h **** #define MPU_RBAR_ADDR_Pos                   8U                                            /*!< MPU 
 561:Drivers/CMSIS/Include/core_cm0plus.h **** #define MPU_RBAR_ADDR_Msk                  (0xFFFFFFUL << MPU_RBAR_ADDR_Pos)              /*!< MPU 
 562:Drivers/CMSIS/Include/core_cm0plus.h **** 
 563:Drivers/CMSIS/Include/core_cm0plus.h **** #define MPU_RBAR_VALID_Pos                  4U                                            /*!< MPU 
 564:Drivers/CMSIS/Include/core_cm0plus.h **** #define MPU_RBAR_VALID_Msk                 (1UL << MPU_RBAR_VALID_Pos)                    /*!< MPU 
 565:Drivers/CMSIS/Include/core_cm0plus.h **** 
 566:Drivers/CMSIS/Include/core_cm0plus.h **** #define MPU_RBAR_REGION_Pos                 0U                                            /*!< MPU 
 567:Drivers/CMSIS/Include/core_cm0plus.h **** #define MPU_RBAR_REGION_Msk                (0xFUL /*<< MPU_RBAR_REGION_Pos*/)             /*!< MPU 
ARM GAS  /tmp/ccdUJEsE.s 			page 16


 568:Drivers/CMSIS/Include/core_cm0plus.h **** 
 569:Drivers/CMSIS/Include/core_cm0plus.h **** /* MPU Region Attribute and Size Register Definitions */
 570:Drivers/CMSIS/Include/core_cm0plus.h **** #define MPU_RASR_ATTRS_Pos                 16U                                            /*!< MPU 
 571:Drivers/CMSIS/Include/core_cm0plus.h **** #define MPU_RASR_ATTRS_Msk                 (0xFFFFUL << MPU_RASR_ATTRS_Pos)               /*!< MPU 
 572:Drivers/CMSIS/Include/core_cm0plus.h **** 
 573:Drivers/CMSIS/Include/core_cm0plus.h **** #define MPU_RASR_XN_Pos                    28U                                            /*!< MPU 
 574:Drivers/CMSIS/Include/core_cm0plus.h **** #define MPU_RASR_XN_Msk                    (1UL << MPU_RASR_XN_Pos)                       /*!< MPU 
 575:Drivers/CMSIS/Include/core_cm0plus.h **** 
 576:Drivers/CMSIS/Include/core_cm0plus.h **** #define MPU_RASR_AP_Pos                    24U                                            /*!< MPU 
 577:Drivers/CMSIS/Include/core_cm0plus.h **** #define MPU_RASR_AP_Msk                    (0x7UL << MPU_RASR_AP_Pos)                     /*!< MPU 
 578:Drivers/CMSIS/Include/core_cm0plus.h **** 
 579:Drivers/CMSIS/Include/core_cm0plus.h **** #define MPU_RASR_TEX_Pos                   19U                                            /*!< MPU 
 580:Drivers/CMSIS/Include/core_cm0plus.h **** #define MPU_RASR_TEX_Msk                   (0x7UL << MPU_RASR_TEX_Pos)                    /*!< MPU 
 581:Drivers/CMSIS/Include/core_cm0plus.h **** 
 582:Drivers/CMSIS/Include/core_cm0plus.h **** #define MPU_RASR_S_Pos                     18U                                            /*!< MPU 
 583:Drivers/CMSIS/Include/core_cm0plus.h **** #define MPU_RASR_S_Msk                     (1UL << MPU_RASR_S_Pos)                        /*!< MPU 
 584:Drivers/CMSIS/Include/core_cm0plus.h **** 
 585:Drivers/CMSIS/Include/core_cm0plus.h **** #define MPU_RASR_C_Pos                     17U                                            /*!< MPU 
 586:Drivers/CMSIS/Include/core_cm0plus.h **** #define MPU_RASR_C_Msk                     (1UL << MPU_RASR_C_Pos)                        /*!< MPU 
 587:Drivers/CMSIS/Include/core_cm0plus.h **** 
 588:Drivers/CMSIS/Include/core_cm0plus.h **** #define MPU_RASR_B_Pos                     16U                                            /*!< MPU 
 589:Drivers/CMSIS/Include/core_cm0plus.h **** #define MPU_RASR_B_Msk                     (1UL << MPU_RASR_B_Pos)                        /*!< MPU 
 590:Drivers/CMSIS/Include/core_cm0plus.h **** 
 591:Drivers/CMSIS/Include/core_cm0plus.h **** #define MPU_RASR_SRD_Pos                    8U                                            /*!< MPU 
 592:Drivers/CMSIS/Include/core_cm0plus.h **** #define MPU_RASR_SRD_Msk                   (0xFFUL << MPU_RASR_SRD_Pos)                   /*!< MPU 
 593:Drivers/CMSIS/Include/core_cm0plus.h **** 
 594:Drivers/CMSIS/Include/core_cm0plus.h **** #define MPU_RASR_SIZE_Pos                   1U                                            /*!< MPU 
 595:Drivers/CMSIS/Include/core_cm0plus.h **** #define MPU_RASR_SIZE_Msk                  (0x1FUL << MPU_RASR_SIZE_Pos)                  /*!< MPU 
 596:Drivers/CMSIS/Include/core_cm0plus.h **** 
 597:Drivers/CMSIS/Include/core_cm0plus.h **** #define MPU_RASR_ENABLE_Pos                 0U                                            /*!< MPU 
 598:Drivers/CMSIS/Include/core_cm0plus.h **** #define MPU_RASR_ENABLE_Msk                (1UL /*<< MPU_RASR_ENABLE_Pos*/)               /*!< MPU 
 599:Drivers/CMSIS/Include/core_cm0plus.h **** 
 600:Drivers/CMSIS/Include/core_cm0plus.h **** /*@} end of group CMSIS_MPU */
 601:Drivers/CMSIS/Include/core_cm0plus.h **** #endif
 602:Drivers/CMSIS/Include/core_cm0plus.h **** 
 603:Drivers/CMSIS/Include/core_cm0plus.h **** 
 604:Drivers/CMSIS/Include/core_cm0plus.h **** /**
 605:Drivers/CMSIS/Include/core_cm0plus.h ****   \ingroup  CMSIS_core_register
 606:Drivers/CMSIS/Include/core_cm0plus.h ****   \defgroup CMSIS_CoreDebug       Core Debug Registers (CoreDebug)
 607:Drivers/CMSIS/Include/core_cm0plus.h ****   \brief    Cortex-M0+ Core Debug Registers (DCB registers, SHCSR, and DFSR) are only accessible ov
 608:Drivers/CMSIS/Include/core_cm0plus.h ****             Therefore they are not covered by the Cortex-M0+ header file.
 609:Drivers/CMSIS/Include/core_cm0plus.h ****   @{
 610:Drivers/CMSIS/Include/core_cm0plus.h ****  */
 611:Drivers/CMSIS/Include/core_cm0plus.h **** /*@} end of group CMSIS_CoreDebug */
 612:Drivers/CMSIS/Include/core_cm0plus.h **** 
 613:Drivers/CMSIS/Include/core_cm0plus.h **** 
 614:Drivers/CMSIS/Include/core_cm0plus.h **** /**
 615:Drivers/CMSIS/Include/core_cm0plus.h ****   \ingroup    CMSIS_core_register
 616:Drivers/CMSIS/Include/core_cm0plus.h ****   \defgroup   CMSIS_core_bitfield     Core register bit field macros
 617:Drivers/CMSIS/Include/core_cm0plus.h ****   \brief      Macros for use with bit field definitions (xxx_Pos, xxx_Msk).
 618:Drivers/CMSIS/Include/core_cm0plus.h ****   @{
 619:Drivers/CMSIS/Include/core_cm0plus.h ****  */
 620:Drivers/CMSIS/Include/core_cm0plus.h **** 
 621:Drivers/CMSIS/Include/core_cm0plus.h **** /**
 622:Drivers/CMSIS/Include/core_cm0plus.h ****   \brief   Mask and shift a bit field value for use in a register bit range.
 623:Drivers/CMSIS/Include/core_cm0plus.h ****   \param[in] field  Name of the register bit field.
 624:Drivers/CMSIS/Include/core_cm0plus.h ****   \param[in] value  Value of the bit field. This parameter is interpreted as an uint32_t type.
ARM GAS  /tmp/ccdUJEsE.s 			page 17


 625:Drivers/CMSIS/Include/core_cm0plus.h ****   \return           Masked and shifted value.
 626:Drivers/CMSIS/Include/core_cm0plus.h **** */
 627:Drivers/CMSIS/Include/core_cm0plus.h **** #define _VAL2FLD(field, value)    (((uint32_t)(value) << field ## _Pos) & field ## _Msk)
 628:Drivers/CMSIS/Include/core_cm0plus.h **** 
 629:Drivers/CMSIS/Include/core_cm0plus.h **** /**
 630:Drivers/CMSIS/Include/core_cm0plus.h ****   \brief     Mask and shift a register value to extract a bit filed value.
 631:Drivers/CMSIS/Include/core_cm0plus.h ****   \param[in] field  Name of the register bit field.
 632:Drivers/CMSIS/Include/core_cm0plus.h ****   \param[in] value  Value of register. This parameter is interpreted as an uint32_t type.
 633:Drivers/CMSIS/Include/core_cm0plus.h ****   \return           Masked and shifted bit field value.
 634:Drivers/CMSIS/Include/core_cm0plus.h **** */
 635:Drivers/CMSIS/Include/core_cm0plus.h **** #define _FLD2VAL(field, value)    (((uint32_t)(value) & field ## _Msk) >> field ## _Pos)
 636:Drivers/CMSIS/Include/core_cm0plus.h **** 
 637:Drivers/CMSIS/Include/core_cm0plus.h **** /*@} end of group CMSIS_core_bitfield */
 638:Drivers/CMSIS/Include/core_cm0plus.h **** 
 639:Drivers/CMSIS/Include/core_cm0plus.h **** 
 640:Drivers/CMSIS/Include/core_cm0plus.h **** /**
 641:Drivers/CMSIS/Include/core_cm0plus.h ****   \ingroup    CMSIS_core_register
 642:Drivers/CMSIS/Include/core_cm0plus.h ****   \defgroup   CMSIS_core_base     Core Definitions
 643:Drivers/CMSIS/Include/core_cm0plus.h ****   \brief      Definitions for base addresses, unions, and structures.
 644:Drivers/CMSIS/Include/core_cm0plus.h ****   @{
 645:Drivers/CMSIS/Include/core_cm0plus.h ****  */
 646:Drivers/CMSIS/Include/core_cm0plus.h **** 
 647:Drivers/CMSIS/Include/core_cm0plus.h **** /* Memory mapping of Core Hardware */
 648:Drivers/CMSIS/Include/core_cm0plus.h **** #define SCS_BASE            (0xE000E000UL)                            /*!< System Control Space Bas
 649:Drivers/CMSIS/Include/core_cm0plus.h **** #define SysTick_BASE        (SCS_BASE +  0x0010UL)                    /*!< SysTick Base Address */
 650:Drivers/CMSIS/Include/core_cm0plus.h **** #define NVIC_BASE           (SCS_BASE +  0x0100UL)                    /*!< NVIC Base Address */
 651:Drivers/CMSIS/Include/core_cm0plus.h **** #define SCB_BASE            (SCS_BASE +  0x0D00UL)                    /*!< System Control Block Bas
 652:Drivers/CMSIS/Include/core_cm0plus.h **** 
 653:Drivers/CMSIS/Include/core_cm0plus.h **** #define SCB                 ((SCB_Type       *)     SCB_BASE      )   /*!< SCB configuration struct
 654:Drivers/CMSIS/Include/core_cm0plus.h **** #define SysTick             ((SysTick_Type   *)     SysTick_BASE  )   /*!< SysTick configuration st
 655:Drivers/CMSIS/Include/core_cm0plus.h **** #define NVIC                ((NVIC_Type      *)     NVIC_BASE     )   /*!< NVIC configuration struc
 656:Drivers/CMSIS/Include/core_cm0plus.h **** 
 657:Drivers/CMSIS/Include/core_cm0plus.h **** #if defined (__MPU_PRESENT) && (__MPU_PRESENT == 1U)
 658:Drivers/CMSIS/Include/core_cm0plus.h ****   #define MPU_BASE          (SCS_BASE +  0x0D90UL)                    /*!< Memory Protection Unit *
 659:Drivers/CMSIS/Include/core_cm0plus.h ****   #define MPU               ((MPU_Type       *)     MPU_BASE      )   /*!< Memory Protection Unit *
 660:Drivers/CMSIS/Include/core_cm0plus.h **** #endif
 661:Drivers/CMSIS/Include/core_cm0plus.h **** 
 662:Drivers/CMSIS/Include/core_cm0plus.h **** /*@} */
 663:Drivers/CMSIS/Include/core_cm0plus.h **** 
 664:Drivers/CMSIS/Include/core_cm0plus.h **** 
 665:Drivers/CMSIS/Include/core_cm0plus.h **** 
 666:Drivers/CMSIS/Include/core_cm0plus.h **** /*******************************************************************************
 667:Drivers/CMSIS/Include/core_cm0plus.h ****  *                Hardware Abstraction Layer
 668:Drivers/CMSIS/Include/core_cm0plus.h ****   Core Function Interface contains:
 669:Drivers/CMSIS/Include/core_cm0plus.h ****   - Core NVIC Functions
 670:Drivers/CMSIS/Include/core_cm0plus.h ****   - Core SysTick Functions
 671:Drivers/CMSIS/Include/core_cm0plus.h ****   - Core Register Access Functions
 672:Drivers/CMSIS/Include/core_cm0plus.h ****  ******************************************************************************/
 673:Drivers/CMSIS/Include/core_cm0plus.h **** /**
 674:Drivers/CMSIS/Include/core_cm0plus.h ****   \defgroup CMSIS_Core_FunctionInterface Functions and Instructions Reference
 675:Drivers/CMSIS/Include/core_cm0plus.h **** */
 676:Drivers/CMSIS/Include/core_cm0plus.h **** 
 677:Drivers/CMSIS/Include/core_cm0plus.h **** 
 678:Drivers/CMSIS/Include/core_cm0plus.h **** 
 679:Drivers/CMSIS/Include/core_cm0plus.h **** /* ##########################   NVIC functions  #################################### */
 680:Drivers/CMSIS/Include/core_cm0plus.h **** /**
 681:Drivers/CMSIS/Include/core_cm0plus.h ****   \ingroup  CMSIS_Core_FunctionInterface
ARM GAS  /tmp/ccdUJEsE.s 			page 18


 682:Drivers/CMSIS/Include/core_cm0plus.h ****   \defgroup CMSIS_Core_NVICFunctions NVIC Functions
 683:Drivers/CMSIS/Include/core_cm0plus.h ****   \brief    Functions that manage interrupts and exceptions via the NVIC.
 684:Drivers/CMSIS/Include/core_cm0plus.h ****   @{
 685:Drivers/CMSIS/Include/core_cm0plus.h ****  */
 686:Drivers/CMSIS/Include/core_cm0plus.h **** 
 687:Drivers/CMSIS/Include/core_cm0plus.h **** #ifdef CMSIS_NVIC_VIRTUAL
 688:Drivers/CMSIS/Include/core_cm0plus.h ****   #ifndef CMSIS_NVIC_VIRTUAL_HEADER_FILE
 689:Drivers/CMSIS/Include/core_cm0plus.h ****     #define CMSIS_NVIC_VIRTUAL_HEADER_FILE "cmsis_nvic_virtual.h"
 690:Drivers/CMSIS/Include/core_cm0plus.h ****   #endif
 691:Drivers/CMSIS/Include/core_cm0plus.h ****   #include CMSIS_NVIC_VIRTUAL_HEADER_FILE
 692:Drivers/CMSIS/Include/core_cm0plus.h **** #else
 693:Drivers/CMSIS/Include/core_cm0plus.h ****   #define NVIC_SetPriorityGrouping    __NVIC_SetPriorityGrouping
 694:Drivers/CMSIS/Include/core_cm0plus.h ****   #define NVIC_GetPriorityGrouping    __NVIC_GetPriorityGrouping
 695:Drivers/CMSIS/Include/core_cm0plus.h ****   #define NVIC_EnableIRQ              __NVIC_EnableIRQ
 696:Drivers/CMSIS/Include/core_cm0plus.h ****   #define NVIC_GetEnableIRQ           __NVIC_GetEnableIRQ
 697:Drivers/CMSIS/Include/core_cm0plus.h ****   #define NVIC_DisableIRQ             __NVIC_DisableIRQ
 698:Drivers/CMSIS/Include/core_cm0plus.h ****   #define NVIC_GetPendingIRQ          __NVIC_GetPendingIRQ
 699:Drivers/CMSIS/Include/core_cm0plus.h ****   #define NVIC_SetPendingIRQ          __NVIC_SetPendingIRQ
 700:Drivers/CMSIS/Include/core_cm0plus.h ****   #define NVIC_ClearPendingIRQ        __NVIC_ClearPendingIRQ
 701:Drivers/CMSIS/Include/core_cm0plus.h **** /*#define NVIC_GetActive              __NVIC_GetActive             not available for Cortex-M0+ */
 702:Drivers/CMSIS/Include/core_cm0plus.h ****   #define NVIC_SetPriority            __NVIC_SetPriority
 703:Drivers/CMSIS/Include/core_cm0plus.h ****   #define NVIC_GetPriority            __NVIC_GetPriority
 704:Drivers/CMSIS/Include/core_cm0plus.h ****   #define NVIC_SystemReset            __NVIC_SystemReset
 705:Drivers/CMSIS/Include/core_cm0plus.h **** #endif /* CMSIS_NVIC_VIRTUAL */
 706:Drivers/CMSIS/Include/core_cm0plus.h **** 
 707:Drivers/CMSIS/Include/core_cm0plus.h **** #ifdef CMSIS_VECTAB_VIRTUAL
 708:Drivers/CMSIS/Include/core_cm0plus.h ****   #ifndef CMSIS_VECTAB_VIRTUAL_HEADER_FILE
 709:Drivers/CMSIS/Include/core_cm0plus.h ****     #define CMSIS_VECTAB_VIRTUAL_HEADER_FILE "cmsis_vectab_virtual.h"
 710:Drivers/CMSIS/Include/core_cm0plus.h ****   #endif
 711:Drivers/CMSIS/Include/core_cm0plus.h ****   #include CMSIS_VECTAB_VIRTUAL_HEADER_FILE
 712:Drivers/CMSIS/Include/core_cm0plus.h **** #else
 713:Drivers/CMSIS/Include/core_cm0plus.h ****   #define NVIC_SetVector              __NVIC_SetVector
 714:Drivers/CMSIS/Include/core_cm0plus.h ****   #define NVIC_GetVector              __NVIC_GetVector
 715:Drivers/CMSIS/Include/core_cm0plus.h **** #endif  /* (CMSIS_VECTAB_VIRTUAL) */
 716:Drivers/CMSIS/Include/core_cm0plus.h **** 
 717:Drivers/CMSIS/Include/core_cm0plus.h **** #define NVIC_USER_IRQ_OFFSET          16
 718:Drivers/CMSIS/Include/core_cm0plus.h **** 
 719:Drivers/CMSIS/Include/core_cm0plus.h **** 
 720:Drivers/CMSIS/Include/core_cm0plus.h **** /* The following EXC_RETURN values are saved the LR on exception entry */
 721:Drivers/CMSIS/Include/core_cm0plus.h **** #define EXC_RETURN_HANDLER         (0xFFFFFFF1UL)     /* return to Handler mode, uses MSP after ret
 722:Drivers/CMSIS/Include/core_cm0plus.h **** #define EXC_RETURN_THREAD_MSP      (0xFFFFFFF9UL)     /* return to Thread mode, uses MSP after retu
 723:Drivers/CMSIS/Include/core_cm0plus.h **** #define EXC_RETURN_THREAD_PSP      (0xFFFFFFFDUL)     /* return to Thread mode, uses PSP after retu
 724:Drivers/CMSIS/Include/core_cm0plus.h **** 
 725:Drivers/CMSIS/Include/core_cm0plus.h **** 
 726:Drivers/CMSIS/Include/core_cm0plus.h **** /* Interrupt Priorities are WORD accessible only under Armv6-M                  */
 727:Drivers/CMSIS/Include/core_cm0plus.h **** /* The following MACROS handle generation of the register offset and byte masks */
 728:Drivers/CMSIS/Include/core_cm0plus.h **** #define _BIT_SHIFT(IRQn)         (  ((((uint32_t)(int32_t)(IRQn))         )      &  0x03UL) * 8UL)
 729:Drivers/CMSIS/Include/core_cm0plus.h **** #define _SHP_IDX(IRQn)           ( (((((uint32_t)(int32_t)(IRQn)) & 0x0FUL)-8UL) >>    2UL)      )
 730:Drivers/CMSIS/Include/core_cm0plus.h **** #define _IP_IDX(IRQn)            (   (((uint32_t)(int32_t)(IRQn))                >>    2UL)      )
 731:Drivers/CMSIS/Include/core_cm0plus.h **** 
 732:Drivers/CMSIS/Include/core_cm0plus.h **** #define __NVIC_SetPriorityGrouping(X) (void)(X)
 733:Drivers/CMSIS/Include/core_cm0plus.h **** #define __NVIC_GetPriorityGrouping()  (0U)
 734:Drivers/CMSIS/Include/core_cm0plus.h **** 
 735:Drivers/CMSIS/Include/core_cm0plus.h **** /**
 736:Drivers/CMSIS/Include/core_cm0plus.h ****   \brief   Enable Interrupt
 737:Drivers/CMSIS/Include/core_cm0plus.h ****   \details Enables a device specific interrupt in the NVIC interrupt controller.
 738:Drivers/CMSIS/Include/core_cm0plus.h ****   \param [in]      IRQn  Device specific interrupt number.
ARM GAS  /tmp/ccdUJEsE.s 			page 19


 739:Drivers/CMSIS/Include/core_cm0plus.h ****   \note    IRQn must not be negative.
 740:Drivers/CMSIS/Include/core_cm0plus.h ****  */
 741:Drivers/CMSIS/Include/core_cm0plus.h **** __STATIC_INLINE void __NVIC_EnableIRQ(IRQn_Type IRQn)
 243              		.loc 2 741 22 view .LVU62
 244              	.LBB11:
 742:Drivers/CMSIS/Include/core_cm0plus.h **** {
 743:Drivers/CMSIS/Include/core_cm0plus.h ****   if ((int32_t)(IRQn) >= 0)
 245              		.loc 2 743 3 view .LVU63
 744:Drivers/CMSIS/Include/core_cm0plus.h ****   {
 745:Drivers/CMSIS/Include/core_cm0plus.h ****     NVIC->ISER[0U] = (uint32_t)(1UL << (((uint32_t)IRQn) & 0x1FUL));
 246              		.loc 2 745 5 view .LVU64
 247              		.loc 2 745 20 is_stmt 0 view .LVU65
 248 0054 074B     		ldr	r3, .L9+8
 249 0056 8022     		movs	r2, #128
 250 0058 9204     		lsls	r2, r2, #18
 251 005a 1A60     		str	r2, [r3]
 252              	.LVL2:
 253              		.loc 2 745 20 view .LVU66
 254              	.LBE11:
 255              	.LBE10:
  50:Core/Src/Sys.c ****   NVIC_SetPriority(SPI1_IRQn, 0);
 256              		.loc 1 50 3 is_stmt 1 view .LVU67
 257              	.LBB12:
 258              	.LBI12:
 746:Drivers/CMSIS/Include/core_cm0plus.h ****   }
 747:Drivers/CMSIS/Include/core_cm0plus.h **** }
 748:Drivers/CMSIS/Include/core_cm0plus.h **** 
 749:Drivers/CMSIS/Include/core_cm0plus.h **** 
 750:Drivers/CMSIS/Include/core_cm0plus.h **** /**
 751:Drivers/CMSIS/Include/core_cm0plus.h ****   \brief   Get Interrupt Enable status
 752:Drivers/CMSIS/Include/core_cm0plus.h ****   \details Returns a device specific interrupt enable status from the NVIC interrupt controller.
 753:Drivers/CMSIS/Include/core_cm0plus.h ****   \param [in]      IRQn  Device specific interrupt number.
 754:Drivers/CMSIS/Include/core_cm0plus.h ****   \return             0  Interrupt is not enabled.
 755:Drivers/CMSIS/Include/core_cm0plus.h ****   \return             1  Interrupt is enabled.
 756:Drivers/CMSIS/Include/core_cm0plus.h ****   \note    IRQn must not be negative.
 757:Drivers/CMSIS/Include/core_cm0plus.h ****  */
 758:Drivers/CMSIS/Include/core_cm0plus.h **** __STATIC_INLINE uint32_t __NVIC_GetEnableIRQ(IRQn_Type IRQn)
 759:Drivers/CMSIS/Include/core_cm0plus.h **** {
 760:Drivers/CMSIS/Include/core_cm0plus.h ****   if ((int32_t)(IRQn) >= 0)
 761:Drivers/CMSIS/Include/core_cm0plus.h ****   {
 762:Drivers/CMSIS/Include/core_cm0plus.h ****     return((uint32_t)(((NVIC->ISER[0U] & (1UL << (((uint32_t)IRQn) & 0x1FUL))) != 0UL) ? 1UL : 0UL)
 763:Drivers/CMSIS/Include/core_cm0plus.h ****   }
 764:Drivers/CMSIS/Include/core_cm0plus.h ****   else
 765:Drivers/CMSIS/Include/core_cm0plus.h ****   {
 766:Drivers/CMSIS/Include/core_cm0plus.h ****     return(0U);
 767:Drivers/CMSIS/Include/core_cm0plus.h ****   }
 768:Drivers/CMSIS/Include/core_cm0plus.h **** }
 769:Drivers/CMSIS/Include/core_cm0plus.h **** 
 770:Drivers/CMSIS/Include/core_cm0plus.h **** 
 771:Drivers/CMSIS/Include/core_cm0plus.h **** /**
 772:Drivers/CMSIS/Include/core_cm0plus.h ****   \brief   Disable Interrupt
 773:Drivers/CMSIS/Include/core_cm0plus.h ****   \details Disables a device specific interrupt in the NVIC interrupt controller.
 774:Drivers/CMSIS/Include/core_cm0plus.h ****   \param [in]      IRQn  Device specific interrupt number.
 775:Drivers/CMSIS/Include/core_cm0plus.h ****   \note    IRQn must not be negative.
 776:Drivers/CMSIS/Include/core_cm0plus.h ****  */
 777:Drivers/CMSIS/Include/core_cm0plus.h **** __STATIC_INLINE void __NVIC_DisableIRQ(IRQn_Type IRQn)
 778:Drivers/CMSIS/Include/core_cm0plus.h **** {
ARM GAS  /tmp/ccdUJEsE.s 			page 20


 779:Drivers/CMSIS/Include/core_cm0plus.h ****   if ((int32_t)(IRQn) >= 0)
 780:Drivers/CMSIS/Include/core_cm0plus.h ****   {
 781:Drivers/CMSIS/Include/core_cm0plus.h ****     NVIC->ICER[0U] = (uint32_t)(1UL << (((uint32_t)IRQn) & 0x1FUL));
 782:Drivers/CMSIS/Include/core_cm0plus.h ****     __DSB();
 783:Drivers/CMSIS/Include/core_cm0plus.h ****     __ISB();
 784:Drivers/CMSIS/Include/core_cm0plus.h ****   }
 785:Drivers/CMSIS/Include/core_cm0plus.h **** }
 786:Drivers/CMSIS/Include/core_cm0plus.h **** 
 787:Drivers/CMSIS/Include/core_cm0plus.h **** 
 788:Drivers/CMSIS/Include/core_cm0plus.h **** /**
 789:Drivers/CMSIS/Include/core_cm0plus.h ****   \brief   Get Pending Interrupt
 790:Drivers/CMSIS/Include/core_cm0plus.h ****   \details Reads the NVIC pending register and returns the pending bit for the specified device spe
 791:Drivers/CMSIS/Include/core_cm0plus.h ****   \param [in]      IRQn  Device specific interrupt number.
 792:Drivers/CMSIS/Include/core_cm0plus.h ****   \return             0  Interrupt status is not pending.
 793:Drivers/CMSIS/Include/core_cm0plus.h ****   \return             1  Interrupt status is pending.
 794:Drivers/CMSIS/Include/core_cm0plus.h ****   \note    IRQn must not be negative.
 795:Drivers/CMSIS/Include/core_cm0plus.h ****  */
 796:Drivers/CMSIS/Include/core_cm0plus.h **** __STATIC_INLINE uint32_t __NVIC_GetPendingIRQ(IRQn_Type IRQn)
 797:Drivers/CMSIS/Include/core_cm0plus.h **** {
 798:Drivers/CMSIS/Include/core_cm0plus.h ****   if ((int32_t)(IRQn) >= 0)
 799:Drivers/CMSIS/Include/core_cm0plus.h ****   {
 800:Drivers/CMSIS/Include/core_cm0plus.h ****     return((uint32_t)(((NVIC->ISPR[0U] & (1UL << (((uint32_t)IRQn) & 0x1FUL))) != 0UL) ? 1UL : 0UL)
 801:Drivers/CMSIS/Include/core_cm0plus.h ****   }
 802:Drivers/CMSIS/Include/core_cm0plus.h ****   else
 803:Drivers/CMSIS/Include/core_cm0plus.h ****   {
 804:Drivers/CMSIS/Include/core_cm0plus.h ****     return(0U);
 805:Drivers/CMSIS/Include/core_cm0plus.h ****   }
 806:Drivers/CMSIS/Include/core_cm0plus.h **** }
 807:Drivers/CMSIS/Include/core_cm0plus.h **** 
 808:Drivers/CMSIS/Include/core_cm0plus.h **** 
 809:Drivers/CMSIS/Include/core_cm0plus.h **** /**
 810:Drivers/CMSIS/Include/core_cm0plus.h ****   \brief   Set Pending Interrupt
 811:Drivers/CMSIS/Include/core_cm0plus.h ****   \details Sets the pending bit of a device specific interrupt in the NVIC pending register.
 812:Drivers/CMSIS/Include/core_cm0plus.h ****   \param [in]      IRQn  Device specific interrupt number.
 813:Drivers/CMSIS/Include/core_cm0plus.h ****   \note    IRQn must not be negative.
 814:Drivers/CMSIS/Include/core_cm0plus.h ****  */
 815:Drivers/CMSIS/Include/core_cm0plus.h **** __STATIC_INLINE void __NVIC_SetPendingIRQ(IRQn_Type IRQn)
 816:Drivers/CMSIS/Include/core_cm0plus.h **** {
 817:Drivers/CMSIS/Include/core_cm0plus.h ****   if ((int32_t)(IRQn) >= 0)
 818:Drivers/CMSIS/Include/core_cm0plus.h ****   {
 819:Drivers/CMSIS/Include/core_cm0plus.h ****     NVIC->ISPR[0U] = (uint32_t)(1UL << (((uint32_t)IRQn) & 0x1FUL));
 820:Drivers/CMSIS/Include/core_cm0plus.h ****   }
 821:Drivers/CMSIS/Include/core_cm0plus.h **** }
 822:Drivers/CMSIS/Include/core_cm0plus.h **** 
 823:Drivers/CMSIS/Include/core_cm0plus.h **** 
 824:Drivers/CMSIS/Include/core_cm0plus.h **** /**
 825:Drivers/CMSIS/Include/core_cm0plus.h ****   \brief   Clear Pending Interrupt
 826:Drivers/CMSIS/Include/core_cm0plus.h ****   \details Clears the pending bit of a device specific interrupt in the NVIC pending register.
 827:Drivers/CMSIS/Include/core_cm0plus.h ****   \param [in]      IRQn  Device specific interrupt number.
 828:Drivers/CMSIS/Include/core_cm0plus.h ****   \note    IRQn must not be negative.
 829:Drivers/CMSIS/Include/core_cm0plus.h ****  */
 830:Drivers/CMSIS/Include/core_cm0plus.h **** __STATIC_INLINE void __NVIC_ClearPendingIRQ(IRQn_Type IRQn)
 831:Drivers/CMSIS/Include/core_cm0plus.h **** {
 832:Drivers/CMSIS/Include/core_cm0plus.h ****   if ((int32_t)(IRQn) >= 0)
 833:Drivers/CMSIS/Include/core_cm0plus.h ****   {
 834:Drivers/CMSIS/Include/core_cm0plus.h ****     NVIC->ICPR[0U] = (uint32_t)(1UL << (((uint32_t)IRQn) & 0x1FUL));
 835:Drivers/CMSIS/Include/core_cm0plus.h ****   }
ARM GAS  /tmp/ccdUJEsE.s 			page 21


 836:Drivers/CMSIS/Include/core_cm0plus.h **** }
 837:Drivers/CMSIS/Include/core_cm0plus.h **** 
 838:Drivers/CMSIS/Include/core_cm0plus.h **** 
 839:Drivers/CMSIS/Include/core_cm0plus.h **** /**
 840:Drivers/CMSIS/Include/core_cm0plus.h ****   \brief   Set Interrupt Priority
 841:Drivers/CMSIS/Include/core_cm0plus.h ****   \details Sets the priority of a device specific interrupt or a processor exception.
 842:Drivers/CMSIS/Include/core_cm0plus.h ****            The interrupt number can be positive to specify a device specific interrupt,
 843:Drivers/CMSIS/Include/core_cm0plus.h ****            or negative to specify a processor exception.
 844:Drivers/CMSIS/Include/core_cm0plus.h ****   \param [in]      IRQn  Interrupt number.
 845:Drivers/CMSIS/Include/core_cm0plus.h ****   \param [in]  priority  Priority to set.
 846:Drivers/CMSIS/Include/core_cm0plus.h ****   \note    The priority cannot be set for every processor exception.
 847:Drivers/CMSIS/Include/core_cm0plus.h ****  */
 848:Drivers/CMSIS/Include/core_cm0plus.h **** __STATIC_INLINE void __NVIC_SetPriority(IRQn_Type IRQn, uint32_t priority)
 259              		.loc 2 848 22 view .LVU68
 260              	.LBB13:
 849:Drivers/CMSIS/Include/core_cm0plus.h **** {
 850:Drivers/CMSIS/Include/core_cm0plus.h ****   if ((int32_t)(IRQn) >= 0)
 261              		.loc 2 850 3 view .LVU69
 851:Drivers/CMSIS/Include/core_cm0plus.h ****   {
 852:Drivers/CMSIS/Include/core_cm0plus.h ****     NVIC->IP[_IP_IDX(IRQn)]  = ((uint32_t)(NVIC->IP[_IP_IDX(IRQn)]  & ~(0xFFUL << _BIT_SHIFT(IRQn))
 262              		.loc 2 852 5 view .LVU70
 263              		.loc 2 852 52 is_stmt 0 view .LVU71
 264 005c C621     		movs	r1, #198
 265 005e 8900     		lsls	r1, r1, #2
 266 0060 5A58     		ldr	r2, [r3, r1]
 267              		.loc 2 852 33 view .LVU72
 268 0062 0548     		ldr	r0, .L9+12
 269 0064 0240     		ands	r2, r0
 270              		.loc 2 852 30 view .LVU73
 271 0066 5A50     		str	r2, [r3, r1]
 272              	.LVL3:
 273              		.loc 2 852 30 view .LVU74
 274              	.LBE13:
 275              	.LBE12:
  51:Core/Src/Sys.c **** }
 276              		.loc 1 51 1 view .LVU75
 277              		@ sp needed
 278 0068 7047     		bx	lr
 279              	.L10:
 280 006a C046     		.align	2
 281              	.L9:
 282 006c 00100240 		.word	1073876992
 283 0070 00300140 		.word	1073819648
 284 0074 00E100E0 		.word	-536813312
 285 0078 FF00FFFF 		.word	-65281
 286              		.cfi_endproc
 287              	.LFE42:
 289              		.section	.text.InitGPIO,"ax",%progbits
 290              		.align	1
 291              		.global	InitGPIO
 292              		.syntax unified
 293              		.code	16
 294              		.thumb_func
 295              		.fpu softvfp
 297              	InitGPIO:
 298              	.LFB43:
  52:Core/Src/Sys.c **** 
ARM GAS  /tmp/ccdUJEsE.s 			page 22


  53:Core/Src/Sys.c **** void InitGPIO(void) {
 299              		.loc 1 53 21 is_stmt 1 view -0
 300              		.cfi_startproc
 301              		@ args = 0, pretend = 0, frame = 0
 302              		@ frame_needed = 0, uses_anonymous_args = 0
 303              		@ link register save eliminated.
  54:Core/Src/Sys.c ****   RCC->IOPENR |= (uint32_t)0b11; //Enable Port A and B
 304              		.loc 1 54 3 view .LVU77
 305              		.loc 1 54 15 is_stmt 0 view .LVU78
 306 0000 144A     		ldr	r2, .L12
 307 0002 D36A     		ldr	r3, [r2, #44]
 308 0004 0321     		movs	r1, #3
 309 0006 0B43     		orrs	r3, r1
 310 0008 D362     		str	r3, [r2, #44]
  55:Core/Src/Sys.c ****   GPIOB->MODER &= ~((uint32_t)0b11 << 2);
 311              		.loc 1 55 3 is_stmt 1 view .LVU79
 312              		.loc 1 55 16 is_stmt 0 view .LVU80
 313 000a 134B     		ldr	r3, .L12+4
 314 000c 1A68     		ldr	r2, [r3]
 315 000e 0931     		adds	r1, r1, #9
 316 0010 8A43     		bics	r2, r1
 317 0012 1A60     		str	r2, [r3]
  56:Core/Src/Sys.c ****   GPIOB->MODER |= (uint32_t)0b10 << 2; //Set AF on PB1
 318              		.loc 1 56 3 is_stmt 1 view .LVU81
 319              		.loc 1 56 16 is_stmt 0 view .LVU82
 320 0014 1968     		ldr	r1, [r3]
 321 0016 0820     		movs	r0, #8
 322 0018 0143     		orrs	r1, r0
 323 001a 1960     		str	r1, [r3]
  57:Core/Src/Sys.c ****   GPIOB->MODER |= (uint32_t)0b10 << 6; //Set AF on PB3
 324              		.loc 1 57 3 is_stmt 1 view .LVU83
 325              		.loc 1 57 16 is_stmt 0 view .LVU84
 326 001c 1968     		ldr	r1, [r3]
 327 001e 8022     		movs	r2, #128
 328 0020 1143     		orrs	r1, r2
 329 0022 1960     		str	r1, [r3]
  58:Core/Src/Sys.c ****   GPIOB->OSPEEDR |= ((uint32_t)0b10 << 2); //Set PB1 to High Speed
 330              		.loc 1 58 3 is_stmt 1 view .LVU85
 331              		.loc 1 58 18 is_stmt 0 view .LVU86
 332 0024 9A68     		ldr	r2, [r3, #8]
 333 0026 0243     		orrs	r2, r0
 334 0028 9A60     		str	r2, [r3, #8]
  59:Core/Src/Sys.c ****   GPIOA->MODER &= ~(((uint32_t)0b11111111)<<6); //Set A3,4,5,6 to Input
 335              		.loc 1 59 3 is_stmt 1 view .LVU87
 336              		.loc 1 59 16 is_stmt 0 view .LVU88
 337 002a A023     		movs	r3, #160
 338 002c DB05     		lsls	r3, r3, #23
 339 002e 1A68     		ldr	r2, [r3]
 340 0030 0A49     		ldr	r1, .L12+8
 341 0032 0A40     		ands	r2, r1
 342 0034 1A60     		str	r2, [r3]
  60:Core/Src/Sys.c ****   GPIOA->PUPDR |= (uint32_t) 0b01010101 << 6; //Set Pull-up on A3,4,5,6
 343              		.loc 1 60 3 is_stmt 1 view .LVU89
 344              		.loc 1 60 16 is_stmt 0 view .LVU90
 345 0036 D968     		ldr	r1, [r3, #12]
 346 0038 AA22     		movs	r2, #170
 347 003a 5201     		lsls	r2, r2, #5
ARM GAS  /tmp/ccdUJEsE.s 			page 23


 348 003c 0A43     		orrs	r2, r1
 349 003e DA60     		str	r2, [r3, #12]
  61:Core/Src/Sys.c ****   EXTI->IMR |= (uint32_t)0b1111 << 3; //Enable EXTI lines 3,4,5,6
 350              		.loc 1 61 3 is_stmt 1 view .LVU91
 351              		.loc 1 61 13 is_stmt 0 view .LVU92
 352 0040 074B     		ldr	r3, .L12+12
 353 0042 1968     		ldr	r1, [r3]
 354 0044 7030     		adds	r0, r0, #112
 355 0046 0143     		orrs	r1, r0
 356 0048 1960     		str	r1, [r3]
  62:Core/Src/Sys.c ****   EXTI->FTSR |= (uint32_t)0b1111 << 3; //Enable falling trigger on EXTI lines 3,4,5,6
 357              		.loc 1 62 3 is_stmt 1 view .LVU93
 358              		.loc 1 62 14 is_stmt 0 view .LVU94
 359 004a DA68     		ldr	r2, [r3, #12]
 360 004c 0243     		orrs	r2, r0
 361 004e DA60     		str	r2, [r3, #12]
  63:Core/Src/Sys.c **** }
 362              		.loc 1 63 1 view .LVU95
 363              		@ sp needed
 364 0050 7047     		bx	lr
 365              	.L13:
 366 0052 C046     		.align	2
 367              	.L12:
 368 0054 00100240 		.word	1073876992
 369 0058 00040050 		.word	1342178304
 370 005c 3FC0FFFF 		.word	-16321
 371 0060 00040140 		.word	1073808384
 372              		.cfi_endproc
 373              	.LFE43:
 375              		.section	.text.InitSys,"ax",%progbits
 376              		.align	1
 377              		.global	InitSys
 378              		.syntax unified
 379              		.code	16
 380              		.thumb_func
 381              		.fpu softvfp
 383              	InitSys:
 384              	.LFB40:
  10:Core/Src/Sys.c ****   SystemInit();
 385              		.loc 1 10 20 is_stmt 1 view -0
 386              		.cfi_startproc
 387              		@ args = 0, pretend = 0, frame = 0
 388              		@ frame_needed = 0, uses_anonymous_args = 0
 389 0000 10B5     		push	{r4, lr}
 390              	.LCFI1:
 391              		.cfi_def_cfa_offset 8
 392              		.cfi_offset 4, -8
 393              		.cfi_offset 14, -4
  11:Core/Src/Sys.c ****   __disable_irq();
 394              		.loc 1 11 3 view .LVU97
 395 0002 FFF7FEFF 		bl	SystemInit
 396              	.LVL4:
  12:Core/Src/Sys.c ****   InitClocks();
 397              		.loc 1 12 3 view .LVU98
 398              	.LBB14:
 399              	.LBI14:
 400              		.file 3 "Drivers/CMSIS/Include/cmsis_gcc.h"
ARM GAS  /tmp/ccdUJEsE.s 			page 24


   1:Drivers/CMSIS/Include/cmsis_gcc.h **** /**************************************************************************//**
   2:Drivers/CMSIS/Include/cmsis_gcc.h ****  * @file     cmsis_gcc.h
   3:Drivers/CMSIS/Include/cmsis_gcc.h ****  * @brief    CMSIS compiler GCC header file
   4:Drivers/CMSIS/Include/cmsis_gcc.h ****  * @version  V5.0.4
   5:Drivers/CMSIS/Include/cmsis_gcc.h ****  * @date     09. April 2018
   6:Drivers/CMSIS/Include/cmsis_gcc.h ****  ******************************************************************************/
   7:Drivers/CMSIS/Include/cmsis_gcc.h **** /*
   8:Drivers/CMSIS/Include/cmsis_gcc.h ****  * Copyright (c) 2009-2018 Arm Limited. All rights reserved.
   9:Drivers/CMSIS/Include/cmsis_gcc.h ****  *
  10:Drivers/CMSIS/Include/cmsis_gcc.h ****  * SPDX-License-Identifier: Apache-2.0
  11:Drivers/CMSIS/Include/cmsis_gcc.h ****  *
  12:Drivers/CMSIS/Include/cmsis_gcc.h ****  * Licensed under the Apache License, Version 2.0 (the License); you may
  13:Drivers/CMSIS/Include/cmsis_gcc.h ****  * not use this file except in compliance with the License.
  14:Drivers/CMSIS/Include/cmsis_gcc.h ****  * You may obtain a copy of the License at
  15:Drivers/CMSIS/Include/cmsis_gcc.h ****  *
  16:Drivers/CMSIS/Include/cmsis_gcc.h ****  * www.apache.org/licenses/LICENSE-2.0
  17:Drivers/CMSIS/Include/cmsis_gcc.h ****  *
  18:Drivers/CMSIS/Include/cmsis_gcc.h ****  * Unless required by applicable law or agreed to in writing, software
  19:Drivers/CMSIS/Include/cmsis_gcc.h ****  * distributed under the License is distributed on an AS IS BASIS, WITHOUT
  20:Drivers/CMSIS/Include/cmsis_gcc.h ****  * WARRANTIES OR CONDITIONS OF ANY KIND, either express or implied.
  21:Drivers/CMSIS/Include/cmsis_gcc.h ****  * See the License for the specific language governing permissions and
  22:Drivers/CMSIS/Include/cmsis_gcc.h ****  * limitations under the License.
  23:Drivers/CMSIS/Include/cmsis_gcc.h ****  */
  24:Drivers/CMSIS/Include/cmsis_gcc.h **** 
  25:Drivers/CMSIS/Include/cmsis_gcc.h **** #ifndef __CMSIS_GCC_H
  26:Drivers/CMSIS/Include/cmsis_gcc.h **** #define __CMSIS_GCC_H
  27:Drivers/CMSIS/Include/cmsis_gcc.h **** 
  28:Drivers/CMSIS/Include/cmsis_gcc.h **** /* ignore some GCC warnings */
  29:Drivers/CMSIS/Include/cmsis_gcc.h **** #pragma GCC diagnostic push
  30:Drivers/CMSIS/Include/cmsis_gcc.h **** #pragma GCC diagnostic ignored "-Wsign-conversion"
  31:Drivers/CMSIS/Include/cmsis_gcc.h **** #pragma GCC diagnostic ignored "-Wconversion"
  32:Drivers/CMSIS/Include/cmsis_gcc.h **** #pragma GCC diagnostic ignored "-Wunused-parameter"
  33:Drivers/CMSIS/Include/cmsis_gcc.h **** 
  34:Drivers/CMSIS/Include/cmsis_gcc.h **** /* Fallback for __has_builtin */
  35:Drivers/CMSIS/Include/cmsis_gcc.h **** #ifndef __has_builtin
  36:Drivers/CMSIS/Include/cmsis_gcc.h ****   #define __has_builtin(x) (0)
  37:Drivers/CMSIS/Include/cmsis_gcc.h **** #endif
  38:Drivers/CMSIS/Include/cmsis_gcc.h **** 
  39:Drivers/CMSIS/Include/cmsis_gcc.h **** /* CMSIS compiler specific defines */
  40:Drivers/CMSIS/Include/cmsis_gcc.h **** #ifndef   __ASM
  41:Drivers/CMSIS/Include/cmsis_gcc.h ****   #define __ASM                                  __asm
  42:Drivers/CMSIS/Include/cmsis_gcc.h **** #endif
  43:Drivers/CMSIS/Include/cmsis_gcc.h **** #ifndef   __INLINE
  44:Drivers/CMSIS/Include/cmsis_gcc.h ****   #define __INLINE                               inline
  45:Drivers/CMSIS/Include/cmsis_gcc.h **** #endif
  46:Drivers/CMSIS/Include/cmsis_gcc.h **** #ifndef   __STATIC_INLINE
  47:Drivers/CMSIS/Include/cmsis_gcc.h ****   #define __STATIC_INLINE                        static inline
  48:Drivers/CMSIS/Include/cmsis_gcc.h **** #endif
  49:Drivers/CMSIS/Include/cmsis_gcc.h **** #ifndef   __STATIC_FORCEINLINE                 
  50:Drivers/CMSIS/Include/cmsis_gcc.h ****   #define __STATIC_FORCEINLINE                   __attribute__((always_inline)) static inline
  51:Drivers/CMSIS/Include/cmsis_gcc.h **** #endif                                           
  52:Drivers/CMSIS/Include/cmsis_gcc.h **** #ifndef   __NO_RETURN
  53:Drivers/CMSIS/Include/cmsis_gcc.h ****   #define __NO_RETURN                            __attribute__((__noreturn__))
  54:Drivers/CMSIS/Include/cmsis_gcc.h **** #endif
  55:Drivers/CMSIS/Include/cmsis_gcc.h **** #ifndef   __USED
  56:Drivers/CMSIS/Include/cmsis_gcc.h ****   #define __USED                                 __attribute__((used))
  57:Drivers/CMSIS/Include/cmsis_gcc.h **** #endif
ARM GAS  /tmp/ccdUJEsE.s 			page 25


  58:Drivers/CMSIS/Include/cmsis_gcc.h **** #ifndef   __WEAK
  59:Drivers/CMSIS/Include/cmsis_gcc.h ****   #define __WEAK                                 __attribute__((weak))
  60:Drivers/CMSIS/Include/cmsis_gcc.h **** #endif
  61:Drivers/CMSIS/Include/cmsis_gcc.h **** #ifndef   __PACKED
  62:Drivers/CMSIS/Include/cmsis_gcc.h ****   #define __PACKED                               __attribute__((packed, aligned(1)))
  63:Drivers/CMSIS/Include/cmsis_gcc.h **** #endif
  64:Drivers/CMSIS/Include/cmsis_gcc.h **** #ifndef   __PACKED_STRUCT
  65:Drivers/CMSIS/Include/cmsis_gcc.h ****   #define __PACKED_STRUCT                        struct __attribute__((packed, aligned(1)))
  66:Drivers/CMSIS/Include/cmsis_gcc.h **** #endif
  67:Drivers/CMSIS/Include/cmsis_gcc.h **** #ifndef   __PACKED_UNION
  68:Drivers/CMSIS/Include/cmsis_gcc.h ****   #define __PACKED_UNION                         union __attribute__((packed, aligned(1)))
  69:Drivers/CMSIS/Include/cmsis_gcc.h **** #endif
  70:Drivers/CMSIS/Include/cmsis_gcc.h **** #ifndef   __UNALIGNED_UINT32        /* deprecated */
  71:Drivers/CMSIS/Include/cmsis_gcc.h ****   #pragma GCC diagnostic push
  72:Drivers/CMSIS/Include/cmsis_gcc.h ****   #pragma GCC diagnostic ignored "-Wpacked"
  73:Drivers/CMSIS/Include/cmsis_gcc.h ****   #pragma GCC diagnostic ignored "-Wattributes"
  74:Drivers/CMSIS/Include/cmsis_gcc.h ****   struct __attribute__((packed)) T_UINT32 { uint32_t v; };
  75:Drivers/CMSIS/Include/cmsis_gcc.h ****   #pragma GCC diagnostic pop
  76:Drivers/CMSIS/Include/cmsis_gcc.h ****   #define __UNALIGNED_UINT32(x)                  (((struct T_UINT32 *)(x))->v)
  77:Drivers/CMSIS/Include/cmsis_gcc.h **** #endif
  78:Drivers/CMSIS/Include/cmsis_gcc.h **** #ifndef   __UNALIGNED_UINT16_WRITE
  79:Drivers/CMSIS/Include/cmsis_gcc.h ****   #pragma GCC diagnostic push
  80:Drivers/CMSIS/Include/cmsis_gcc.h ****   #pragma GCC diagnostic ignored "-Wpacked"
  81:Drivers/CMSIS/Include/cmsis_gcc.h ****   #pragma GCC diagnostic ignored "-Wattributes"
  82:Drivers/CMSIS/Include/cmsis_gcc.h ****   __PACKED_STRUCT T_UINT16_WRITE { uint16_t v; };
  83:Drivers/CMSIS/Include/cmsis_gcc.h ****   #pragma GCC diagnostic pop
  84:Drivers/CMSIS/Include/cmsis_gcc.h ****   #define __UNALIGNED_UINT16_WRITE(addr, val)    (void)((((struct T_UINT16_WRITE *)(void *)(addr))-
  85:Drivers/CMSIS/Include/cmsis_gcc.h **** #endif
  86:Drivers/CMSIS/Include/cmsis_gcc.h **** #ifndef   __UNALIGNED_UINT16_READ
  87:Drivers/CMSIS/Include/cmsis_gcc.h ****   #pragma GCC diagnostic push
  88:Drivers/CMSIS/Include/cmsis_gcc.h ****   #pragma GCC diagnostic ignored "-Wpacked"
  89:Drivers/CMSIS/Include/cmsis_gcc.h ****   #pragma GCC diagnostic ignored "-Wattributes"
  90:Drivers/CMSIS/Include/cmsis_gcc.h ****   __PACKED_STRUCT T_UINT16_READ { uint16_t v; };
  91:Drivers/CMSIS/Include/cmsis_gcc.h ****   #pragma GCC diagnostic pop
  92:Drivers/CMSIS/Include/cmsis_gcc.h ****   #define __UNALIGNED_UINT16_READ(addr)          (((const struct T_UINT16_READ *)(const void *)(add
  93:Drivers/CMSIS/Include/cmsis_gcc.h **** #endif
  94:Drivers/CMSIS/Include/cmsis_gcc.h **** #ifndef   __UNALIGNED_UINT32_WRITE
  95:Drivers/CMSIS/Include/cmsis_gcc.h ****   #pragma GCC diagnostic push
  96:Drivers/CMSIS/Include/cmsis_gcc.h ****   #pragma GCC diagnostic ignored "-Wpacked"
  97:Drivers/CMSIS/Include/cmsis_gcc.h ****   #pragma GCC diagnostic ignored "-Wattributes"
  98:Drivers/CMSIS/Include/cmsis_gcc.h ****   __PACKED_STRUCT T_UINT32_WRITE { uint32_t v; };
  99:Drivers/CMSIS/Include/cmsis_gcc.h ****   #pragma GCC diagnostic pop
 100:Drivers/CMSIS/Include/cmsis_gcc.h ****   #define __UNALIGNED_UINT32_WRITE(addr, val)    (void)((((struct T_UINT32_WRITE *)(void *)(addr))-
 101:Drivers/CMSIS/Include/cmsis_gcc.h **** #endif
 102:Drivers/CMSIS/Include/cmsis_gcc.h **** #ifndef   __UNALIGNED_UINT32_READ
 103:Drivers/CMSIS/Include/cmsis_gcc.h ****   #pragma GCC diagnostic push
 104:Drivers/CMSIS/Include/cmsis_gcc.h ****   #pragma GCC diagnostic ignored "-Wpacked"
 105:Drivers/CMSIS/Include/cmsis_gcc.h ****   #pragma GCC diagnostic ignored "-Wattributes"
 106:Drivers/CMSIS/Include/cmsis_gcc.h ****   __PACKED_STRUCT T_UINT32_READ { uint32_t v; };
 107:Drivers/CMSIS/Include/cmsis_gcc.h ****   #pragma GCC diagnostic pop
 108:Drivers/CMSIS/Include/cmsis_gcc.h ****   #define __UNALIGNED_UINT32_READ(addr)          (((const struct T_UINT32_READ *)(const void *)(add
 109:Drivers/CMSIS/Include/cmsis_gcc.h **** #endif
 110:Drivers/CMSIS/Include/cmsis_gcc.h **** #ifndef   __ALIGNED
 111:Drivers/CMSIS/Include/cmsis_gcc.h ****   #define __ALIGNED(x)                           __attribute__((aligned(x)))
 112:Drivers/CMSIS/Include/cmsis_gcc.h **** #endif
 113:Drivers/CMSIS/Include/cmsis_gcc.h **** #ifndef   __RESTRICT
 114:Drivers/CMSIS/Include/cmsis_gcc.h ****   #define __RESTRICT                             __restrict
ARM GAS  /tmp/ccdUJEsE.s 			page 26


 115:Drivers/CMSIS/Include/cmsis_gcc.h **** #endif
 116:Drivers/CMSIS/Include/cmsis_gcc.h **** 
 117:Drivers/CMSIS/Include/cmsis_gcc.h **** 
 118:Drivers/CMSIS/Include/cmsis_gcc.h **** /* ###########################  Core Function Access  ########################### */
 119:Drivers/CMSIS/Include/cmsis_gcc.h **** /** \ingroup  CMSIS_Core_FunctionInterface
 120:Drivers/CMSIS/Include/cmsis_gcc.h ****     \defgroup CMSIS_Core_RegAccFunctions CMSIS Core Register Access Functions
 121:Drivers/CMSIS/Include/cmsis_gcc.h ****   @{
 122:Drivers/CMSIS/Include/cmsis_gcc.h ****  */
 123:Drivers/CMSIS/Include/cmsis_gcc.h **** 
 124:Drivers/CMSIS/Include/cmsis_gcc.h **** /**
 125:Drivers/CMSIS/Include/cmsis_gcc.h ****   \brief   Enable IRQ Interrupts
 126:Drivers/CMSIS/Include/cmsis_gcc.h ****   \details Enables IRQ interrupts by clearing the I-bit in the CPSR.
 127:Drivers/CMSIS/Include/cmsis_gcc.h ****            Can only be executed in Privileged modes.
 128:Drivers/CMSIS/Include/cmsis_gcc.h ****  */
 129:Drivers/CMSIS/Include/cmsis_gcc.h **** __STATIC_FORCEINLINE void __enable_irq(void)
 130:Drivers/CMSIS/Include/cmsis_gcc.h **** {
 131:Drivers/CMSIS/Include/cmsis_gcc.h ****   __ASM volatile ("cpsie i" : : : "memory");
 132:Drivers/CMSIS/Include/cmsis_gcc.h **** }
 133:Drivers/CMSIS/Include/cmsis_gcc.h **** 
 134:Drivers/CMSIS/Include/cmsis_gcc.h **** 
 135:Drivers/CMSIS/Include/cmsis_gcc.h **** /**
 136:Drivers/CMSIS/Include/cmsis_gcc.h ****   \brief   Disable IRQ Interrupts
 137:Drivers/CMSIS/Include/cmsis_gcc.h ****   \details Disables IRQ interrupts by setting the I-bit in the CPSR.
 138:Drivers/CMSIS/Include/cmsis_gcc.h ****            Can only be executed in Privileged modes.
 139:Drivers/CMSIS/Include/cmsis_gcc.h ****  */
 140:Drivers/CMSIS/Include/cmsis_gcc.h **** __STATIC_FORCEINLINE void __disable_irq(void)
 401              		.loc 3 140 27 view .LVU99
 402              	.LBB15:
 141:Drivers/CMSIS/Include/cmsis_gcc.h **** {
 142:Drivers/CMSIS/Include/cmsis_gcc.h ****   __ASM volatile ("cpsid i" : : : "memory");
 403              		.loc 3 142 3 view .LVU100
 404              		.syntax divided
 405              	@ 142 "Drivers/CMSIS/Include/cmsis_gcc.h" 1
 406 0006 72B6     		cpsid i
 407              	@ 0 "" 2
 408              		.thumb
 409              		.syntax unified
 410              	.LBE15:
 411              	.LBE14:
  13:Core/Src/Sys.c ****   InitGPIO();
 412              		.loc 1 13 3 view .LVU101
 413 0008 FFF7FEFF 		bl	InitClocks
 414              	.LVL5:
  14:Core/Src/Sys.c ****   InitSPI();
 415              		.loc 1 14 3 view .LVU102
 416 000c FFF7FEFF 		bl	InitGPIO
 417              	.LVL6:
  15:Core/Src/Sys.c ****   __enable_irq();
 418              		.loc 1 15 3 view .LVU103
 419 0010 FFF7FEFF 		bl	InitSPI
 420              	.LVL7:
  16:Core/Src/Sys.c **** }
 421              		.loc 1 16 3 view .LVU104
 422              	.LBB16:
 423              	.LBI16:
 129:Drivers/CMSIS/Include/cmsis_gcc.h **** {
 424              		.loc 3 129 27 view .LVU105
ARM GAS  /tmp/ccdUJEsE.s 			page 27


 425              	.LBB17:
 131:Drivers/CMSIS/Include/cmsis_gcc.h **** }
 426              		.loc 3 131 3 view .LVU106
 427              		.syntax divided
 428              	@ 131 "Drivers/CMSIS/Include/cmsis_gcc.h" 1
 429 0014 62B6     		cpsie i
 430              	@ 0 "" 2
 431              		.thumb
 432              		.syntax unified
 433              	.LBE17:
 434              	.LBE16:
  17:Core/Src/Sys.c **** 
 435              		.loc 1 17 1 is_stmt 0 view .LVU107
 436              		@ sp needed
 437 0016 10BD     		pop	{r4, pc}
 438              		.cfi_endproc
 439              	.LFE40:
 441              		.section	.text.SpiWrite,"ax",%progbits
 442              		.align	1
 443              		.global	SpiWrite
 444              		.syntax unified
 445              		.code	16
 446              		.thumb_func
 447              		.fpu softvfp
 449              	SpiWrite:
 450              	.LVL8:
 451              	.LFB44:
  64:Core/Src/Sys.c **** 
  65:Core/Src/Sys.c **** void SpiWrite(uint8_t byte) {
 452              		.loc 1 65 29 is_stmt 1 view -0
 453              		.cfi_startproc
 454              		@ args = 0, pretend = 0, frame = 0
 455              		@ frame_needed = 0, uses_anonymous_args = 0
 456              		@ link register save eliminated.
  66:Core/Src/Sys.c ****   if((SPI1->SR & SPI_SR_TXE) == SPI_SR_TXE) /* Test Tx empty */
 457              		.loc 1 66 3 view .LVU109
 458              		.loc 1 66 11 is_stmt 0 view .LVU110
 459 0000 034B     		ldr	r3, .L17
 460 0002 9B68     		ldr	r3, [r3, #8]
 461              		.loc 1 66 5 view .LVU111
 462 0004 9B07     		lsls	r3, r3, #30
 463 0006 01D5     		bpl	.L15
  67:Core/Src/Sys.c ****     {
  68:Core/Src/Sys.c ****       *((volatile uint8_t*)&SPI1->DR) = byte; //Write to DR as an 8-byte register
 464              		.loc 1 68 7 is_stmt 1 view .LVU112
 465              		.loc 1 68 39 is_stmt 0 view .LVU113
 466 0008 024B     		ldr	r3, .L17+4
 467 000a 1870     		strb	r0, [r3]
 468              	.L15:
  69:Core/Src/Sys.c ****     }
  70:Core/Src/Sys.c **** }
 469              		.loc 1 70 1 view .LVU114
 470              		@ sp needed
 471 000c 7047     		bx	lr
 472              	.L18:
 473 000e C046     		.align	2
 474              	.L17:
ARM GAS  /tmp/ccdUJEsE.s 			page 28


 475 0010 00300140 		.word	1073819648
 476 0014 0C300140 		.word	1073819660
 477              		.cfi_endproc
 478              	.LFE44:
 480              		.text
 481              	.Letext0:
 482              		.file 4 "/usr/arm-none-eabi/include/machine/_default_types.h"
 483              		.file 5 "/usr/arm-none-eabi/include/sys/_stdint.h"
 484              		.file 6 "Drivers/CMSIS/Device/ST/STM32L0xx/Include/stm32l010x4.h"
 485              		.file 7 "Drivers/CMSIS/Device/ST/STM32L0xx/Include/system_stm32l0xx.h"
ARM GAS  /tmp/ccdUJEsE.s 			page 29

